SF:/Users/sdicola/CascadeProjects/afritokeni-mvp/canisters/shared_types/src/audit.rs
FN:155,_RNCNCNCNvNtCsfgfb3ljBq8q_12shared_types5audit18get_user_audit_log000B9_
FN:215,_RNCNCNvNtCsfgfb3ljBq8q_12shared_types5audit15get_audit_stats0s0_0B7_
FN:154,_RNCNCNvNtCsfgfb3ljBq8q_12shared_types5audit18get_user_audit_log00B7_
FN:171,_RNCNCNvNtCsfgfb3ljBq8q_12shared_types5audit19get_audit_by_action00B7_
FN:186,_RNCNCNvNtCsfgfb3ljBq8q_12shared_types5audit21get_failed_operations00B7_
FN:134,_RNCNvNtCsfgfb3ljBq8q_12shared_types5audit13get_audit_log0B5_
FN:195,_RNCNvNtCsfgfb3ljBq8q_12shared_types5audit15get_audit_stats0B5_
FN:148,_RNCNvNtCsfgfb3ljBq8q_12shared_types5audit18get_user_audit_log0B5_
FN:165,_RNCNvNtCsfgfb3ljBq8q_12shared_types5audit19get_audit_by_action0B5_
FN:180,_RNCNvNtCsfgfb3ljBq8q_12shared_types5audit21get_failed_operations0B5_
FN:52,_RNCNvNtCsfgfb3ljBq8q_12shared_types5audit9log_audit0B5_
FN:81,_RNvNtCsfgfb3ljBq8q_12shared_types5audit11log_failure
FN:76,_RNvNtCsfgfb3ljBq8q_12shared_types5audit11log_success
FN:133,_RNvNtCsfgfb3ljBq8q_12shared_types5audit13get_audit_log
FN:194,_RNvNtCsfgfb3ljBq8q_12shared_types5audit15get_audit_stats
FN:147,_RNvNtCsfgfb3ljBq8q_12shared_types5audit18get_user_audit_log
FN:164,_RNvNtCsfgfb3ljBq8q_12shared_types5audit19get_audit_by_action
FN:179,_RNvNtCsfgfb3ljBq8q_12shared_types5audit21get_failed_operations
FN:126,_RNvNtCsfgfb3ljBq8q_12shared_types5audit23generate_correlation_id
FN:86,_RNvNtCsfgfb3ljBq8q_12shared_types5audit23log_inter_canister_call
FN:103,_RNvNtCsfgfb3ljBq8q_12shared_types5audit25log_inter_canister_result
FN:37,_RNvNtCsfgfb3ljBq8q_12shared_types5audit9log_audit
FNDA:0,_RNCNCNCNvNtCsfgfb3ljBq8q_12shared_types5audit18get_user_audit_log000B9_
FNDA:0,_RNCNCNvNtCsfgfb3ljBq8q_12shared_types5audit15get_audit_stats0s0_0B7_
FNDA:0,_RNCNCNvNtCsfgfb3ljBq8q_12shared_types5audit18get_user_audit_log00B7_
FNDA:0,_RNCNCNvNtCsfgfb3ljBq8q_12shared_types5audit19get_audit_by_action00B7_
FNDA:0,_RNCNCNvNtCsfgfb3ljBq8q_12shared_types5audit21get_failed_operations00B7_
FNDA:0,_RNCNvNtCsfgfb3ljBq8q_12shared_types5audit13get_audit_log0B5_
FNDA:0,_RNCNvNtCsfgfb3ljBq8q_12shared_types5audit15get_audit_stats0B5_
FNDA:0,_RNCNvNtCsfgfb3ljBq8q_12shared_types5audit18get_user_audit_log0B5_
FNDA:0,_RNCNvNtCsfgfb3ljBq8q_12shared_types5audit19get_audit_by_action0B5_
FNDA:0,_RNCNvNtCsfgfb3ljBq8q_12shared_types5audit21get_failed_operations0B5_
FNDA:0,_RNCNvNtCsfgfb3ljBq8q_12shared_types5audit9log_audit0B5_
FNDA:0,_RNvNtCsfgfb3ljBq8q_12shared_types5audit11log_failure
FNDA:0,_RNvNtCsfgfb3ljBq8q_12shared_types5audit11log_success
FNDA:0,_RNvNtCsfgfb3ljBq8q_12shared_types5audit13get_audit_log
FNDA:0,_RNvNtCsfgfb3ljBq8q_12shared_types5audit15get_audit_stats
FNDA:0,_RNvNtCsfgfb3ljBq8q_12shared_types5audit18get_user_audit_log
FNDA:0,_RNvNtCsfgfb3ljBq8q_12shared_types5audit19get_audit_by_action
FNDA:0,_RNvNtCsfgfb3ljBq8q_12shared_types5audit21get_failed_operations
FNDA:0,_RNvNtCsfgfb3ljBq8q_12shared_types5audit23generate_correlation_id
FNDA:0,_RNvNtCsfgfb3ljBq8q_12shared_types5audit23log_inter_canister_call
FNDA:0,_RNvNtCsfgfb3ljBq8q_12shared_types5audit25log_inter_canister_result
FNDA:0,_RNvNtCsfgfb3ljBq8q_12shared_types5audit9log_audit
FNF:22
FNH:0
DA:37,0
DA:38,0
DA:39,0
DA:40,0
DA:41,0
DA:42,0
DA:43,0
DA:44,0
DA:45,0
DA:46,0
DA:47,0
DA:48,0
DA:49,0
DA:50,0
DA:52,0
DA:53,0
DA:54,0
DA:57,0
DA:58,0
DA:59,0
DA:60,0
DA:63,0
DA:64,0
DA:65,0
DA:73,0
DA:76,0
DA:77,0
DA:78,0
DA:81,0
DA:82,0
DA:83,0
DA:86,0
DA:87,0
DA:88,0
DA:89,0
DA:90,0
DA:91,0
DA:92,0
DA:93,0
DA:94,0
DA:95,0
DA:96,0
DA:100,0
DA:103,0
DA:104,0
DA:105,0
DA:106,0
DA:107,0
DA:108,0
DA:109,0
DA:110,0
DA:111,0
DA:113,0
DA:114,0
DA:117,0
DA:121,0
DA:122,0
DA:126,0
DA:127,0
DA:128,0
DA:129,0
DA:130,0
DA:133,0
DA:134,0
DA:135,0
DA:136,0
DA:138,0
DA:139,0
DA:141,0
DA:143,0
DA:144,0
DA:147,0
DA:148,0
DA:149,0
DA:150,0
DA:152,0
DA:153,0
DA:154,0
DA:155,0
DA:156,0
DA:157,0
DA:158,0
DA:159,0
DA:160,0
DA:161,0
DA:164,0
DA:165,0
DA:166,0
DA:167,0
DA:169,0
DA:170,0
DA:171,0
DA:172,0
DA:173,0
DA:174,0
DA:175,0
DA:176,0
DA:179,0
DA:180,0
DA:181,0
DA:182,0
DA:184,0
DA:185,0
DA:186,0
DA:187,0
DA:188,0
DA:189,0
DA:190,0
DA:191,0
DA:194,0
DA:195,0
DA:196,0
DA:197,0
DA:198,0
DA:199,0
DA:202,0
DA:203,0
DA:204,0
DA:205,0
DA:208,0
DA:209,0
DA:210,0
DA:211,0
DA:212,0
DA:213,0
DA:214,0
DA:215,0
DA:217,0
DA:218,0
BRF:0
BRH:0
LF:140
LH:0
end_of_record
SF:/Users/sdicola/CascadeProjects/afritokeni-mvp/canisters/shared_types/src/lib.rs
FN:20,_RINvXs6_Csfgfb3ljBq8q_12shared_typesNtB6_12FiatCurrencyNtNtCs5Z3inzGgH5w_6candid5types10CandidType13idl_serializeQNtNtBV_3ser15ValueSerializerECscWf9x61XuvJ_3lib
FN:189,_RINvXsy_Csfgfb3ljBq8q_12shared_typesNtB6_19RegisterUserRequestNtNtCs5Z3inzGgH5w_6candid5types10CandidType13idl_serializeQNtNtB12_3ser15ValueSerializerECscWf9x61XuvJ_3lib
FN:29,_RNvMCsfgfb3ljBq8q_12shared_typesNtB2_12FiatCurrency11from_string
FN:78,_RNvMCsfgfb3ljBq8q_12shared_typesNtB2_12FiatCurrency4code
FN:122,_RNvMCsfgfb3ljBq8q_12shared_typesNtB2_12FiatCurrency9from_code
FN:74,_RNvMCsfgfb3ljBq8q_12shared_typesNtB2_12FiatCurrency9to_string
FN:275,_RINvXs10_Csfgfb3ljBq8q_12shared_typesNtB7_17TransactionStatusNtNtCs5Z3inzGgH5w_6candid5types10CandidType13idl_serializeQNtNtB11_3ser15ValueSerializerECshRHBFeUD2GX_15wallet_canister
FN:283,_RINvXs17_Csfgfb3ljBq8q_12shared_typesNtB7_11TransactionNtNtCs5Z3inzGgH5w_6candid5types10CandidType13idl_serializeQNtNtBV_3ser15ValueSerializerECshRHBFeUD2GX_15wallet_canister
FN:454,_RINvXs1X_Csfgfb3ljBq8q_12shared_typesNtB7_12EscrowStatusNtNtCs5Z3inzGgH5w_6candid5types10CandidType13idl_serializeQNtNtBW_3ser15ValueSerializerECshRHBFeUD2GX_15wallet_canister
FN:310,_RINvXs1d_Csfgfb3ljBq8q_12shared_typesNtB7_12CurrencyTypeNtNtCs5Z3inzGgH5w_6candid5types10CandidType13idl_serializeQNtNtBW_3ser15ValueSerializerECshRHBFeUD2GX_15wallet_canister
FN:463,_RINvXs24_Csfgfb3ljBq8q_12shared_typesNtB7_6EscrowNtNtCs5Z3inzGgH5w_6candid5types10CandidType13idl_serializeQNtNtBP_3ser15ValueSerializerECshRHBFeUD2GX_15wallet_canister
FN:20,_RINvXs6_Csfgfb3ljBq8q_12shared_typesNtB6_12FiatCurrencyNtNtCs5Z3inzGgH5w_6candid5types10CandidType13idl_serializeQNtNtBV_3ser15ValueSerializerECshRHBFeUD2GX_15wallet_canister
FN:264,_RINvXsT_Csfgfb3ljBq8q_12shared_typesNtB6_15TransactionTypeNtNtCs5Z3inzGgH5w_6candid5types10CandidType13idl_serializeQNtNtBY_3ser15ValueSerializerECshRHBFeUD2GX_15wallet_canister
FN:136,_RINvXsl_Csfgfb3ljBq8q_12shared_typesNtB6_10CryptoTypeNtNtCs5Z3inzGgH5w_6candid5types10CandidType13idl_serializeQNtNtBT_3ser15ValueSerializerECshRHBFeUD2GX_15wallet_canister
FNDA:0,_RINvXs6_Csfgfb3ljBq8q_12shared_typesNtB6_12FiatCurrencyNtNtCs5Z3inzGgH5w_6candid5types10CandidType13idl_serializeQNtNtBV_3ser15ValueSerializerECscWf9x61XuvJ_3lib
FNDA:0,_RINvXsy_Csfgfb3ljBq8q_12shared_typesNtB6_19RegisterUserRequestNtNtCs5Z3inzGgH5w_6candid5types10CandidType13idl_serializeQNtNtB12_3ser15ValueSerializerECscWf9x61XuvJ_3lib
FNDA:14,_RNvMCsfgfb3ljBq8q_12shared_typesNtB2_12FiatCurrency11from_string
FNDA:4,_RNvMCsfgfb3ljBq8q_12shared_typesNtB2_12FiatCurrency4code
FNDA:0,_RNvMCsfgfb3ljBq8q_12shared_typesNtB2_12FiatCurrency9from_code
FNDA:0,_RNvMCsfgfb3ljBq8q_12shared_typesNtB2_12FiatCurrency9to_string
FNDA:0,_RINvXs10_Csfgfb3ljBq8q_12shared_typesNtB7_17TransactionStatusNtNtCs5Z3inzGgH5w_6candid5types10CandidType13idl_serializeQNtNtB11_3ser15ValueSerializerECshRHBFeUD2GX_15wallet_canister
FNDA:0,_RINvXs17_Csfgfb3ljBq8q_12shared_typesNtB7_11TransactionNtNtCs5Z3inzGgH5w_6candid5types10CandidType13idl_serializeQNtNtBV_3ser15ValueSerializerECshRHBFeUD2GX_15wallet_canister
FNDA:0,_RINvXs1X_Csfgfb3ljBq8q_12shared_typesNtB7_12EscrowStatusNtNtCs5Z3inzGgH5w_6candid5types10CandidType13idl_serializeQNtNtBW_3ser15ValueSerializerECshRHBFeUD2GX_15wallet_canister
FNDA:0,_RINvXs1d_Csfgfb3ljBq8q_12shared_typesNtB7_12CurrencyTypeNtNtCs5Z3inzGgH5w_6candid5types10CandidType13idl_serializeQNtNtBW_3ser15ValueSerializerECshRHBFeUD2GX_15wallet_canister
FNDA:0,_RINvXs24_Csfgfb3ljBq8q_12shared_typesNtB7_6EscrowNtNtCs5Z3inzGgH5w_6candid5types10CandidType13idl_serializeQNtNtBP_3ser15ValueSerializerECshRHBFeUD2GX_15wallet_canister
FNDA:0,_RINvXs6_Csfgfb3ljBq8q_12shared_typesNtB6_12FiatCurrencyNtNtCs5Z3inzGgH5w_6candid5types10CandidType13idl_serializeQNtNtBV_3ser15ValueSerializerECshRHBFeUD2GX_15wallet_canister
FNDA:0,_RINvXsT_Csfgfb3ljBq8q_12shared_typesNtB6_15TransactionTypeNtNtCs5Z3inzGgH5w_6candid5types10CandidType13idl_serializeQNtNtBY_3ser15ValueSerializerECshRHBFeUD2GX_15wallet_canister
FNDA:0,_RINvXsl_Csfgfb3ljBq8q_12shared_typesNtB6_10CryptoTypeNtNtCs5Z3inzGgH5w_6candid5types10CandidType13idl_serializeQNtNtBT_3ser15ValueSerializerECshRHBFeUD2GX_15wallet_canister
FNF:13
FNH:2
DA:20,0
DA:29,14
DA:30,14
DA:31,14
DA:32,14
DA:33,14
DA:34,14
DA:35,14
DA:36,14
DA:37,14
DA:38,14
DA:39,14
DA:40,14
DA:41,14
DA:42,14
DA:43,14
DA:44,10
DA:45,10
DA:46,10
DA:47,10
DA:48,10
DA:49,10
DA:50,10
DA:51,10
DA:52,10
DA:53,10
DA:54,10
DA:55,10
DA:56,10
DA:57,10
DA:58,10
DA:59,10
DA:60,10
DA:61,10
DA:62,10
DA:63,10
DA:64,10
DA:65,10
DA:66,0
DA:67,0
DA:68,0
DA:69,0
DA:70,0
DA:72,14
DA:74,0
DA:75,0
DA:76,0
DA:78,4
DA:79,4
DA:80,0
DA:81,0
DA:82,0
DA:83,0
DA:84,0
DA:85,0
DA:86,0
DA:87,0
DA:88,0
DA:89,0
DA:90,0
DA:91,0
DA:92,2
DA:93,0
DA:94,0
DA:95,0
DA:96,0
DA:97,0
DA:98,0
DA:99,0
DA:100,0
DA:101,0
DA:102,0
DA:103,0
DA:104,0
DA:105,0
DA:106,0
DA:107,0
DA:108,0
DA:109,0
DA:110,0
DA:111,0
DA:112,0
DA:113,0
DA:114,2
DA:115,0
DA:116,0
DA:117,0
DA:118,0
DA:120,4
DA:122,0
DA:123,0
DA:124,0
DA:136,0
DA:189,0
DA:264,0
DA:275,0
DA:283,0
DA:310,0
DA:454,0
DA:463,0
BRF:0
BRH:0
LF:100
LH:43
end_of_record
SF:/Users/sdicola/CascadeProjects/afritokeni-mvp/canisters/wallet_canister/src/config.rs
FN:146,_RNCNCNvNtCshRHBFeUD2GX_15wallet_canister6config20get_data_canister_id00B7_
FN:161,_RNCNCNvNtCshRHBFeUD2GX_15wallet_canister6config20get_user_canister_id00B7_
FN:179,_RNCNCNvNtCshRHBFeUD2GX_15wallet_canister6config26remove_authorized_canister00B7_
FN:78,_RNCNvNtCshRHBFeUD2GX_15wallet_canister6config10get_config0B5_
FN:67,_RNCNvNtCshRHBFeUD2GX_15wallet_canister6config11init_config0B5_
FN:92,_RNCNvNtCshRHBFeUD2GX_15wallet_canister6config16get_fraud_limits0B5_
FN:144,_RNCNvNtCshRHBFeUD2GX_15wallet_canister6config20get_data_canister_id0B5_
FN:159,_RNCNvNtCshRHBFeUD2GX_15wallet_canister6config20get_user_canister_id0B5_
FN:137,_RNCNvNtCshRHBFeUD2GX_15wallet_canister6config20set_data_canister_id0B5_
FN:152,_RNCNvNtCshRHBFeUD2GX_15wallet_canister6config20set_user_canister_id0B5_
FN:167,_RNCNvNtCshRHBFeUD2GX_15wallet_canister6config23add_authorized_canister0B5_
FN:193,_RNCNvNtCshRHBFeUD2GX_15wallet_canister6config24verify_authorized_caller0B5_
FN:202,_RNCNvNtCshRHBFeUD2GX_15wallet_canister6config24verify_authorized_callers_0B5_
FN:177,_RNCNvNtCshRHBFeUD2GX_15wallet_canister6config26remove_authorized_canister0B5_
FN:77,_RNvNtCshRHBFeUD2GX_15wallet_canister6config10get_config
FN:66,_RNvNtCshRHBFeUD2GX_15wallet_canister6config11init_config
FN:87,_RNvNtCshRHBFeUD2GX_15wallet_canister6config16get_fraud_limits
FN:143,_RNvNtCshRHBFeUD2GX_15wallet_canister6config20get_data_canister_id
FN:102,_RNvNtCshRHBFeUD2GX_15wallet_canister6config20get_exchange_fee_bps
FN:96,_RNvNtCshRHBFeUD2GX_15wallet_canister6config20get_transfer_fee_bps
FN:158,_RNvNtCshRHBFeUD2GX_15wallet_canister6config20get_user_canister_id
FN:136,_RNvNtCshRHBFeUD2GX_15wallet_canister6config20set_data_canister_id
FN:151,_RNvNtCshRHBFeUD2GX_15wallet_canister6config20set_user_canister_id
FN:125,_RNvNtCshRHBFeUD2GX_15wallet_canister6config21get_coingecko_api_url
FN:108,_RNvNtCshRHBFeUD2GX_15wallet_canister6config22get_withdrawal_fee_bps
FN:166,_RNvNtCshRHBFeUD2GX_15wallet_canister6config23add_authorized_canister
FN:131,_RNvNtCshRHBFeUD2GX_15wallet_canister6config24get_exchangerate_api_url
FN:184,_RNvNtCshRHBFeUD2GX_15wallet_canister6config24verify_authorized_caller
FN:176,_RNvNtCshRHBFeUD2GX_15wallet_canister6config26remove_authorized_canister
FN:119,_RNvNtCshRHBFeUD2GX_15wallet_canister6config29get_escrow_expiration_time_ns
FN:114,_RNvNtCshRHBFeUD2GX_15wallet_canister6config31get_agent_commission_percentage
FN:285,_RNvNtNtCshRHBFeUD2GX_15wallet_canister6config5testss_13test_api_urls
FN:266,_RNvNtNtCshRHBFeUD2GX_15wallet_canister6config5testss_16test_fee_getters
FN:219,_RNvNtNtCshRHBFeUD2GX_15wallet_canister6config5testss_19test_config_parsing
FN:239,_RNvNtNtCshRHBFeUD2GX_15wallet_canister6config5testss_21test_fraud_limits_kes
FN:257,_RNvNtNtCshRHBFeUD2GX_15wallet_canister6config5testss_21test_fraud_limits_ngn
FN:248,_RNvNtNtCshRHBFeUD2GX_15wallet_canister6config5testss_21test_fraud_limits_ugx
FN:276,_RNvNtNtCshRHBFeUD2GX_15wallet_canister6config5testss_22test_escrow_expiration
FN:230,_RNvNtNtCshRHBFeUD2GX_15wallet_canister6config5testss_25test_fraud_limits_default
FNDA:0,_RNCNCNvNtCshRHBFeUD2GX_15wallet_canister6config20get_data_canister_id00B7_
FNDA:0,_RNCNCNvNtCshRHBFeUD2GX_15wallet_canister6config20get_user_canister_id00B7_
FNDA:0,_RNCNCNvNtCshRHBFeUD2GX_15wallet_canister6config26remove_authorized_canister00B7_
FNDA:12,_RNCNvNtCshRHBFeUD2GX_15wallet_canister6config10get_config0B5_
FNDA:8,_RNCNvNtCshRHBFeUD2GX_15wallet_canister6config11init_config0B5_
FNDA:1,_RNCNvNtCshRHBFeUD2GX_15wallet_canister6config16get_fraud_limits0B5_
FNDA:0,_RNCNvNtCshRHBFeUD2GX_15wallet_canister6config20get_data_canister_id0B5_
FNDA:0,_RNCNvNtCshRHBFeUD2GX_15wallet_canister6config20get_user_canister_id0B5_
FNDA:0,_RNCNvNtCshRHBFeUD2GX_15wallet_canister6config20set_data_canister_id0B5_
FNDA:0,_RNCNvNtCshRHBFeUD2GX_15wallet_canister6config20set_user_canister_id0B5_
FNDA:0,_RNCNvNtCshRHBFeUD2GX_15wallet_canister6config23add_authorized_canister0B5_
FNDA:0,_RNCNvNtCshRHBFeUD2GX_15wallet_canister6config24verify_authorized_caller0B5_
FNDA:0,_RNCNvNtCshRHBFeUD2GX_15wallet_canister6config24verify_authorized_callers_0B5_
FNDA:0,_RNCNvNtCshRHBFeUD2GX_15wallet_canister6config26remove_authorized_canister0B5_
FNDA:12,_RNvNtCshRHBFeUD2GX_15wallet_canister6config10get_config
FNDA:8,_RNvNtCshRHBFeUD2GX_15wallet_canister6config11init_config
FNDA:4,_RNvNtCshRHBFeUD2GX_15wallet_canister6config16get_fraud_limits
FNDA:0,_RNvNtCshRHBFeUD2GX_15wallet_canister6config20get_data_canister_id
FNDA:1,_RNvNtCshRHBFeUD2GX_15wallet_canister6config20get_exchange_fee_bps
FNDA:1,_RNvNtCshRHBFeUD2GX_15wallet_canister6config20get_transfer_fee_bps
FNDA:0,_RNvNtCshRHBFeUD2GX_15wallet_canister6config20get_user_canister_id
FNDA:0,_RNvNtCshRHBFeUD2GX_15wallet_canister6config20set_data_canister_id
FNDA:0,_RNvNtCshRHBFeUD2GX_15wallet_canister6config20set_user_canister_id
FNDA:1,_RNvNtCshRHBFeUD2GX_15wallet_canister6config21get_coingecko_api_url
FNDA:1,_RNvNtCshRHBFeUD2GX_15wallet_canister6config22get_withdrawal_fee_bps
FNDA:0,_RNvNtCshRHBFeUD2GX_15wallet_canister6config23add_authorized_canister
FNDA:1,_RNvNtCshRHBFeUD2GX_15wallet_canister6config24get_exchangerate_api_url
FNDA:0,_RNvNtCshRHBFeUD2GX_15wallet_canister6config24verify_authorized_caller
FNDA:0,_RNvNtCshRHBFeUD2GX_15wallet_canister6config26remove_authorized_canister
FNDA:1,_RNvNtCshRHBFeUD2GX_15wallet_canister6config29get_escrow_expiration_time_ns
FNDA:1,_RNvNtCshRHBFeUD2GX_15wallet_canister6config31get_agent_commission_percentage
FNDA:1,_RNvNtNtCshRHBFeUD2GX_15wallet_canister6config5testss_13test_api_urls
FNDA:1,_RNvNtNtCshRHBFeUD2GX_15wallet_canister6config5testss_16test_fee_getters
FNDA:1,_RNvNtNtCshRHBFeUD2GX_15wallet_canister6config5testss_19test_config_parsing
FNDA:1,_RNvNtNtCshRHBFeUD2GX_15wallet_canister6config5testss_21test_fraud_limits_kes
FNDA:1,_RNvNtNtCshRHBFeUD2GX_15wallet_canister6config5testss_21test_fraud_limits_ngn
FNDA:1,_RNvNtNtCshRHBFeUD2GX_15wallet_canister6config5testss_21test_fraud_limits_ugx
FNDA:1,_RNvNtNtCshRHBFeUD2GX_15wallet_canister6config5testss_22test_escrow_expiration
FNDA:1,_RNvNtNtCshRHBFeUD2GX_15wallet_canister6config5testss_25test_fraud_limits_default
FNF:39
FNH:21
DA:66,8
DA:67,8
DA:68,8
DA:69,8
DA:70,8
DA:71,8
DA:72,8
DA:73,8
DA:74,8
DA:77,12
DA:78,12
DA:79,12
DA:80,0
DA:81,12
DA:82,12
DA:83,12
DA:84,12
DA:87,4
DA:88,4
DA:89,4
DA:90,4
DA:91,4
DA:92,4
DA:93,4
DA:96,1
DA:97,1
DA:98,1
DA:102,1
DA:103,1
DA:104,1
DA:108,1
DA:109,1
DA:110,1
DA:114,1
DA:115,1
DA:116,1
DA:119,1
DA:120,1
DA:121,1
DA:125,1
DA:126,1
DA:127,1
DA:131,1
DA:132,1
DA:133,1
DA:136,0
DA:137,0
DA:138,0
DA:139,0
DA:140,0
DA:143,0
DA:144,0
DA:145,0
DA:146,0
DA:147,0
DA:148,0
DA:151,0
DA:152,0
DA:153,0
DA:154,0
DA:155,0
DA:158,0
DA:159,0
DA:160,0
DA:161,0
DA:162,0
DA:163,0
DA:166,0
DA:167,0
DA:168,0
DA:169,0
DA:170,0
DA:171,0
DA:172,0
DA:173,0
DA:176,0
DA:177,0
DA:178,0
DA:179,0
DA:180,0
DA:181,0
DA:184,0
DA:185,0
DA:188,0
DA:189,0
DA:190,0
DA:193,0
DA:194,0
DA:195,0
DA:197,0
DA:198,0
DA:199,0
DA:202,0
DA:203,0
DA:204,0
DA:206,0
DA:207,0
DA:208,0
DA:209,0
DA:211,0
DA:212,0
DA:219,1
DA:220,1
DA:221,1
DA:223,1
DA:224,1
DA:225,1
DA:226,1
DA:227,1
DA:230,1
DA:231,1
DA:232,1
DA:234,1
DA:235,1
DA:236,1
DA:239,1
DA:240,1
DA:241,1
DA:243,1
DA:244,1
DA:245,1
DA:248,1
DA:249,1
DA:250,1
DA:252,1
DA:253,1
DA:254,1
DA:257,1
DA:258,1
DA:259,1
DA:261,1
DA:262,1
DA:263,1
DA:266,1
DA:267,1
DA:269,1
DA:270,1
DA:271,1
DA:272,1
DA:273,1
DA:276,1
DA:277,1
DA:278,1
DA:281,1
DA:282,1
DA:285,1
DA:286,1
DA:288,1
DA:289,1
DA:291,1
DA:292,1
DA:293,1
BRF:0
BRH:0
LF:166
LH:98
end_of_record
SF:/Users/sdicola/CascadeProjects/afritokeni-mvp/canisters/wallet_canister/src/lib.rs
FN:15,_RINvXCshRHBFeUD2GX_15wallet_canisterNtB3_15TransferRequestNtNtCs5Z3inzGgH5w_6candid5types10CandidType13idl_serializepEB3_
FN:40,_RINvXs4_CshRHBFeUD2GX_15wallet_canisterNtB6_19CreateEscrowRequestNtNtCs5Z3inzGgH5w_6candid5types10CandidType13idl_serializepEB6_
FN:26,_RINvXs1_CshRHBFeUD2GX_15wallet_canisterNtB6_16TransferResponseNtNtCs5Z3inzGgH5w_6candid5types10CandidType13idl_serializeQNtNtB12_3ser15ValueSerializerEB6_
FN:50,_RINvXs7_CshRHBFeUD2GX_15wallet_canisterNtB6_20CreateEscrowResponseNtNtCs5Z3inzGgH5w_6candid5types10CandidType13idl_serializeQNtNtB16_3ser15ValueSerializerEB6_
FN:436,_RNCNCNvCshRHBFeUD2GX_15wallet_canister10get_escrow00B5_
FN:323,_RNCNCNvCshRHBFeUD2GX_15wallet_canister12claim_escrow00B5_
FN:377,_RNCNCNvCshRHBFeUD2GX_15wallet_canister13cancel_escrow00B5_
FN:131,_RNCNCNvCshRHBFeUD2GX_15wallet_canister13transfer_fiat00B5_
FN:432,_RNCNvCshRHBFeUD2GX_15wallet_canister10get_escrow0B3_
FN:316,_RNCNvCshRHBFeUD2GX_15wallet_canister12claim_escrow0B3_
FN:370,_RNCNvCshRHBFeUD2GX_15wallet_canister13cancel_escrow0B3_
FN:229,_RNCNvCshRHBFeUD2GX_15wallet_canister13create_escrow0B3_
FN:118,_RNCNvCshRHBFeUD2GX_15wallet_canister13transfer_fiat0B3_
FN:449,_RNCNvCshRHBFeUD2GX_15wallet_canister23get_transaction_history0B3_
FN:432,_RNvCshRHBFeUD2GX_15wallet_canister10get_escrow
FN:316,_RNvCshRHBFeUD2GX_15wallet_canister12claim_escrow
FN:370,_RNvCshRHBFeUD2GX_15wallet_canister13cancel_escrow
FN:229,_RNvCshRHBFeUD2GX_15wallet_canister13create_escrow
FN:118,_RNvCshRHBFeUD2GX_15wallet_canister13transfer_fiat
FN:461,_RNvCshRHBFeUD2GX_15wallet_canister15get_config_info
FN:74,_RNvCshRHBFeUD2GX_15wallet_canister20set_data_canister_id
FN:84,_RNvCshRHBFeUD2GX_15wallet_canister20set_user_canister_id
FN:94,_RNvCshRHBFeUD2GX_15wallet_canister23add_authorized_canister
FN:445,_RNvCshRHBFeUD2GX_15wallet_canister23get_transaction_history
FN:104,_RNvCshRHBFeUD2GX_15wallet_canister26remove_authorized_canister
FN:63,_RNvCshRHBFeUD2GX_15wallet_canister4init
FNDA:0,_RINvXCshRHBFeUD2GX_15wallet_canisterNtB3_15TransferRequestNtNtCs5Z3inzGgH5w_6candid5types10CandidType13idl_serializepEB3_
FNDA:0,_RINvXs4_CshRHBFeUD2GX_15wallet_canisterNtB6_19CreateEscrowRequestNtNtCs5Z3inzGgH5w_6candid5types10CandidType13idl_serializepEB6_
FNDA:0,_RINvXs1_CshRHBFeUD2GX_15wallet_canisterNtB6_16TransferResponseNtNtCs5Z3inzGgH5w_6candid5types10CandidType13idl_serializeQNtNtB12_3ser15ValueSerializerEB6_
FNDA:0,_RINvXs7_CshRHBFeUD2GX_15wallet_canisterNtB6_20CreateEscrowResponseNtNtCs5Z3inzGgH5w_6candid5types10CandidType13idl_serializeQNtNtB16_3ser15ValueSerializerEB6_
FNDA:0,_RNCNCNvCshRHBFeUD2GX_15wallet_canister10get_escrow00B5_
FNDA:0,_RNCNCNvCshRHBFeUD2GX_15wallet_canister12claim_escrow00B5_
FNDA:0,_RNCNCNvCshRHBFeUD2GX_15wallet_canister13cancel_escrow00B5_
FNDA:0,_RNCNCNvCshRHBFeUD2GX_15wallet_canister13transfer_fiat00B5_
FNDA:0,_RNCNvCshRHBFeUD2GX_15wallet_canister10get_escrow0B3_
FNDA:0,_RNCNvCshRHBFeUD2GX_15wallet_canister12claim_escrow0B3_
FNDA:0,_RNCNvCshRHBFeUD2GX_15wallet_canister13cancel_escrow0B3_
FNDA:0,_RNCNvCshRHBFeUD2GX_15wallet_canister13create_escrow0B3_
FNDA:0,_RNCNvCshRHBFeUD2GX_15wallet_canister13transfer_fiat0B3_
FNDA:0,_RNCNvCshRHBFeUD2GX_15wallet_canister23get_transaction_history0B3_
FNDA:0,_RNvCshRHBFeUD2GX_15wallet_canister10get_escrow
FNDA:0,_RNvCshRHBFeUD2GX_15wallet_canister12claim_escrow
FNDA:0,_RNvCshRHBFeUD2GX_15wallet_canister13cancel_escrow
FNDA:0,_RNvCshRHBFeUD2GX_15wallet_canister13create_escrow
FNDA:0,_RNvCshRHBFeUD2GX_15wallet_canister13transfer_fiat
FNDA:0,_RNvCshRHBFeUD2GX_15wallet_canister15get_config_info
FNDA:0,_RNvCshRHBFeUD2GX_15wallet_canister20set_data_canister_id
FNDA:0,_RNvCshRHBFeUD2GX_15wallet_canister20set_user_canister_id
FNDA:0,_RNvCshRHBFeUD2GX_15wallet_canister23add_authorized_canister
FNDA:0,_RNvCshRHBFeUD2GX_15wallet_canister23get_transaction_history
FNDA:0,_RNvCshRHBFeUD2GX_15wallet_canister26remove_authorized_canister
FNDA:0,_RNvCshRHBFeUD2GX_15wallet_canister4init
FNF:26
FNH:0
DA:15,0
DA:26,0
DA:40,0
DA:50,0
DA:63,0
DA:64,0
DA:65,0
DA:66,0
DA:74,0
DA:75,0
DA:76,0
DA:77,0
DA:78,0
DA:79,0
DA:80,0
DA:84,0
DA:85,0
DA:86,0
DA:87,0
DA:88,0
DA:89,0
DA:90,0
DA:94,0
DA:95,0
DA:96,0
DA:97,0
DA:98,0
DA:99,0
DA:100,0
DA:104,0
DA:105,0
DA:106,0
DA:107,0
DA:108,0
DA:109,0
DA:110,0
DA:118,0
DA:119,0
DA:121,0
DA:124,0
DA:125,0
DA:126,0
DA:127,0
DA:130,0
DA:131,0
DA:134,0
DA:135,0
DA:136,0
DA:137,0
DA:138,0
DA:139,0
DA:141,0
DA:142,0
DA:145,0
DA:146,0
DA:149,0
DA:152,0
DA:153,0
DA:154,0
DA:155,0
DA:158,0
DA:159,0
DA:160,0
DA:161,0
DA:162,0
DA:164,0
DA:165,0
DA:168,0
DA:171,0
DA:174,0
DA:177,0
DA:178,0
DA:181,0
DA:182,0
DA:185,0
DA:188,0
DA:189,0
DA:190,0
DA:191,0
DA:192,0
DA:193,0
DA:194,0
DA:195,0
DA:196,0
DA:197,0
DA:198,0
DA:199,0
DA:201,0
DA:204,0
DA:205,0
DA:206,0
DA:207,0
DA:210,0
DA:211,0
DA:212,0
DA:213,0
DA:214,0
DA:215,0
DA:216,0
DA:217,0
DA:218,0
DA:219,0
DA:220,0
DA:221,0
DA:229,0
DA:230,0
DA:232,0
DA:235,0
DA:236,0
DA:237,0
DA:240,0
DA:241,0
DA:242,0
DA:243,0
DA:247,0
DA:248,0
DA:249,0
DA:250,0
DA:251,0
DA:252,0
DA:254,0
DA:255,0
DA:258,0
DA:261,0
DA:262,0
DA:265,0
DA:266,0
DA:269,0
DA:270,0
DA:271,0
DA:272,0
DA:273,0
DA:274,0
DA:275,0
DA:276,0
DA:277,0
DA:278,0
DA:279,0
DA:280,0
DA:283,0
DA:284,0
DA:285,0
DA:286,0
DA:287,0
DA:288,0
DA:289,0
DA:290,0
DA:291,0
DA:292,0
DA:293,0
DA:294,0
DA:295,0
DA:297,0
DA:300,0
DA:301,0
DA:302,0
DA:303,0
DA:306,0
DA:307,0
DA:308,0
DA:309,0
DA:310,0
DA:311,0
DA:312,0
DA:316,0
DA:317,0
DA:319,0
DA:322,0
DA:323,0
DA:326,0
DA:329,0
DA:332,0
DA:335,0
DA:336,0
DA:339,0
DA:342,0
DA:343,0
DA:344,0
DA:345,0
DA:346,0
DA:347,0
DA:348,0
DA:349,0
DA:350,0
DA:351,0
DA:352,0
DA:353,0
DA:354,0
DA:356,0
DA:359,0
DA:360,0
DA:361,0
DA:362,0
DA:365,0
DA:366,0
DA:370,0
DA:371,0
DA:373,0
DA:376,0
DA:377,0
DA:380,0
DA:383,0
DA:386,0
DA:387,0
DA:388,0
DA:389,0
DA:390,0
DA:391,0
DA:393,0
DA:394,0
DA:397,0
DA:398,0
DA:401,0
DA:404,0
DA:405,0
DA:406,0
DA:407,0
DA:408,0
DA:409,0
DA:410,0
DA:411,0
DA:412,0
DA:413,0
DA:414,0
DA:415,0
DA:416,0
DA:418,0
DA:421,0
DA:422,0
DA:423,0
DA:424,0
DA:427,0
DA:428,0
DA:432,0
DA:433,0
DA:435,0
DA:436,0
DA:437,0
DA:445,0
DA:446,0
DA:447,0
DA:448,0
DA:449,0
DA:450,0
DA:452,0
DA:453,0
DA:461,0
DA:462,0
DA:463,0
DA:464,0
DA:469,0
BRF:0
BRH:0
LF:261
LH:0
end_of_record
SF:/Users/sdicola/CascadeProjects/afritokeni-mvp/canisters/wallet_canister/src/logic/escrow_logic.rs
FN:6,_RNvNtNtCshRHBFeUD2GX_15wallet_canister5logic12escrow_logic20generate_escrow_code
FN:13,_RNvNtNtCshRHBFeUD2GX_15wallet_canister5logic12escrow_logic22validate_escrow_active
FN:52,_RNvNtNtCshRHBFeUD2GX_15wallet_canister5logic12escrow_logic22validate_escrow_amount
FN:45,_RNvNtNtCshRHBFeUD2GX_15wallet_canister5logic12escrow_logic25calculate_expiration_time
FN:29,_RNvNtNtCshRHBFeUD2GX_15wallet_canister5logic12escrow_logic25validate_agent_authorized
FN:37,_RNvNtNtCshRHBFeUD2GX_15wallet_canister5logic12escrow_logic25validate_user_owns_escrow
FN:21,_RNvNtNtCshRHBFeUD2GX_15wallet_canister5logic12escrow_logic27validate_escrow_not_expired
FN:69,_RNvNtNtCshRHBFeUD2GX_15wallet_canister5logic12escrow_logic28calculate_escrow_claim_delta
FN:78,_RNvNtNtCshRHBFeUD2GX_15wallet_canister5logic12escrow_logic29calculate_escrow_refund_delta
FN:60,_RNvNtNtCshRHBFeUD2GX_15wallet_canister5logic12escrow_logic31calculate_escrow_creation_delta
FN:48,_RNCNvNtNtCshRHBFeUD2GX_15wallet_canister5logic12escrow_logic25calculate_expiration_time0B7_
FN:279,_RNvNtNtNtCshRHBFeUD2GX_15wallet_canister5logic12escrow_logic5testss_21test_escrow_lifecycle
FN:314,_RNvNtNtNtCshRHBFeUD2GX_15wallet_canister5logic12escrow_logic5testss_24test_escrow_cancellation
FN:124,_RNvNtNtNtCshRHBFeUD2GX_15wallet_canister5logic12escrow_logic5testss_30test_validate_escrow_active_ok
FN:91,_RNvNtNtNtCshRHBFeUD2GX_15wallet_canister5logic12escrow_logic5testss_32test_generate_escrow_code_format
FN:99,_RNvNtNtNtCshRHBFeUD2GX_15wallet_canister5logic12escrow_logic5testss_32test_generate_escrow_code_unique
FN:227,_RNvNtNtNtCshRHBFeUD2GX_15wallet_canister5logic12escrow_logic5testss_32test_validate_escrow_amount_zero
FN:169,_RNvNtNtNtCshRHBFeUD2GX_15wallet_canister5logic12escrow_logic5testss_33test_validate_agent_authorized_ok
FN:220,_RNvNtNtNtCshRHBFeUD2GX_15wallet_canister5logic12escrow_logic5testss_33test_validate_escrow_amount_valid
FN:185,_RNvNtNtNtCshRHBFeUD2GX_15wallet_canister5logic12escrow_logic5testss_33test_validate_user_owns_escrow_ok
FN:266,_RNvNtNtNtCshRHBFeUD2GX_15wallet_canister5logic12escrow_logic5testss_34test_calculate_escrow_refund_delta
FN:174,_RNvNtNtNtCshRHBFeUD2GX_15wallet_canister5logic12escrow_logic5testss_35test_validate_agent_authorized_fail
FN:129,_RNvNtNtNtCshRHBFeUD2GX_15wallet_canister5logic12escrow_logic5testss_35test_validate_escrow_active_claimed
FN:136,_RNvNtNtNtCshRHBFeUD2GX_15wallet_canister5logic12escrow_logic5testss_35test_validate_escrow_active_expired
FN:152,_RNvNtNtNtCshRHBFeUD2GX_15wallet_canister5logic12escrow_logic5testss_35test_validate_escrow_not_expired_ok
FN:190,_RNvNtNtNtCshRHBFeUD2GX_15wallet_canister5logic12escrow_logic5testss_35test_validate_user_owns_escrow_fail
FN:201,_RNvNtNtNtCshRHBFeUD2GX_15wallet_canister5logic12escrow_logic5testss_36test_calculate_expiration_time_valid
FN:142,_RNvNtNtNtCshRHBFeUD2GX_15wallet_canister5logic12escrow_logic5testss_37test_validate_escrow_active_cancelled
FN:158,_RNvNtNtNtCshRHBFeUD2GX_15wallet_canister5logic12escrow_logic5testss_37test_validate_escrow_not_expired_fail
FN:113,_RNvNtNtNtCshRHBFeUD2GX_15wallet_canister5logic12escrow_logic5testss_38test_generate_escrow_code_long_user_id
FN:252,_RNvNtNtNtCshRHBFeUD2GX_15wallet_canister5logic12escrow_logic5testss_39test_calculate_escrow_claim_delta_ckbtc
FN:209,_RNvNtNtNtCshRHBFeUD2GX_15wallet_canister5logic12escrow_logic5testss_39test_calculate_expiration_time_overflow
FN:259,_RNvNtNtNtCshRHBFeUD2GX_15wallet_canister5logic12escrow_logic5testss_40test_calculate_escrow_claim_delta_ckusdc
FN:106,_RNvNtNtNtCshRHBFeUD2GX_15wallet_canister5logic12escrow_logic5testss_41test_generate_escrow_code_different_users
FN:238,_RNvNtNtNtCshRHBFeUD2GX_15wallet_canister5logic12escrow_logic5testss_42test_calculate_escrow_creation_delta_ckbtc
FN:245,_RNvNtNtNtCshRHBFeUD2GX_15wallet_canister5logic12escrow_logic5testss_43test_calculate_escrow_creation_delta_ckusdc
FNDA:7,_RNvNtNtCshRHBFeUD2GX_15wallet_canister5logic12escrow_logic20generate_escrow_code
FNDA:6,_RNvNtNtCshRHBFeUD2GX_15wallet_canister5logic12escrow_logic22validate_escrow_active
FNDA:5,_RNvNtNtCshRHBFeUD2GX_15wallet_canister5logic12escrow_logic22validate_escrow_amount
FNDA:3,_RNvNtNtCshRHBFeUD2GX_15wallet_canister5logic12escrow_logic25calculate_expiration_time
FNDA:3,_RNvNtNtCshRHBFeUD2GX_15wallet_canister5logic12escrow_logic25validate_agent_authorized
FNDA:3,_RNvNtNtCshRHBFeUD2GX_15wallet_canister5logic12escrow_logic25validate_user_owns_escrow
FNDA:4,_RNvNtNtCshRHBFeUD2GX_15wallet_canister5logic12escrow_logic27validate_escrow_not_expired
FNDA:6,_RNvNtNtCshRHBFeUD2GX_15wallet_canister5logic12escrow_logic28calculate_escrow_claim_delta
FNDA:2,_RNvNtNtCshRHBFeUD2GX_15wallet_canister5logic12escrow_logic29calculate_escrow_refund_delta
FNDA:3,_RNvNtNtCshRHBFeUD2GX_15wallet_canister5logic12escrow_logic31calculate_escrow_creation_delta
FNDA:1,_RNCNvNtNtCshRHBFeUD2GX_15wallet_canister5logic12escrow_logic25calculate_expiration_time0B7_
FNDA:1,_RNvNtNtNtCshRHBFeUD2GX_15wallet_canister5logic12escrow_logic5testss_21test_escrow_lifecycle
FNDA:1,_RNvNtNtNtCshRHBFeUD2GX_15wallet_canister5logic12escrow_logic5testss_24test_escrow_cancellation
FNDA:1,_RNvNtNtNtCshRHBFeUD2GX_15wallet_canister5logic12escrow_logic5testss_30test_validate_escrow_active_ok
FNDA:1,_RNvNtNtNtCshRHBFeUD2GX_15wallet_canister5logic12escrow_logic5testss_32test_generate_escrow_code_format
FNDA:1,_RNvNtNtNtCshRHBFeUD2GX_15wallet_canister5logic12escrow_logic5testss_32test_generate_escrow_code_unique
FNDA:1,_RNvNtNtNtCshRHBFeUD2GX_15wallet_canister5logic12escrow_logic5testss_32test_validate_escrow_amount_zero
FNDA:1,_RNvNtNtNtCshRHBFeUD2GX_15wallet_canister5logic12escrow_logic5testss_33test_validate_agent_authorized_ok
FNDA:1,_RNvNtNtNtCshRHBFeUD2GX_15wallet_canister5logic12escrow_logic5testss_33test_validate_escrow_amount_valid
FNDA:1,_RNvNtNtNtCshRHBFeUD2GX_15wallet_canister5logic12escrow_logic5testss_33test_validate_user_owns_escrow_ok
FNDA:1,_RNvNtNtNtCshRHBFeUD2GX_15wallet_canister5logic12escrow_logic5testss_34test_calculate_escrow_refund_delta
FNDA:1,_RNvNtNtNtCshRHBFeUD2GX_15wallet_canister5logic12escrow_logic5testss_35test_validate_agent_authorized_fail
FNDA:1,_RNvNtNtNtCshRHBFeUD2GX_15wallet_canister5logic12escrow_logic5testss_35test_validate_escrow_active_claimed
FNDA:1,_RNvNtNtNtCshRHBFeUD2GX_15wallet_canister5logic12escrow_logic5testss_35test_validate_escrow_active_expired
FNDA:1,_RNvNtNtNtCshRHBFeUD2GX_15wallet_canister5logic12escrow_logic5testss_35test_validate_escrow_not_expired_ok
FNDA:1,_RNvNtNtNtCshRHBFeUD2GX_15wallet_canister5logic12escrow_logic5testss_35test_validate_user_owns_escrow_fail
FNDA:1,_RNvNtNtNtCshRHBFeUD2GX_15wallet_canister5logic12escrow_logic5testss_36test_calculate_expiration_time_valid
FNDA:1,_RNvNtNtNtCshRHBFeUD2GX_15wallet_canister5logic12escrow_logic5testss_37test_validate_escrow_active_cancelled
FNDA:1,_RNvNtNtNtCshRHBFeUD2GX_15wallet_canister5logic12escrow_logic5testss_37test_validate_escrow_not_expired_fail
FNDA:1,_RNvNtNtNtCshRHBFeUD2GX_15wallet_canister5logic12escrow_logic5testss_38test_generate_escrow_code_long_user_id
FNDA:1,_RNvNtNtNtCshRHBFeUD2GX_15wallet_canister5logic12escrow_logic5testss_39test_calculate_escrow_claim_delta_ckbtc
FNDA:1,_RNvNtNtNtCshRHBFeUD2GX_15wallet_canister5logic12escrow_logic5testss_39test_calculate_expiration_time_overflow
FNDA:1,_RNvNtNtNtCshRHBFeUD2GX_15wallet_canister5logic12escrow_logic5testss_40test_calculate_escrow_claim_delta_ckusdc
FNDA:1,_RNvNtNtNtCshRHBFeUD2GX_15wallet_canister5logic12escrow_logic5testss_41test_generate_escrow_code_different_users
FNDA:1,_RNvNtNtNtCshRHBFeUD2GX_15wallet_canister5logic12escrow_logic5testss_42test_calculate_escrow_creation_delta_ckbtc
FNDA:1,_RNvNtNtNtCshRHBFeUD2GX_15wallet_canister5logic12escrow_logic5testss_43test_calculate_escrow_creation_delta_ckusdc
FNF:36
FNH:36
DA:6,7
DA:8,7
DA:9,7
DA:10,7
DA:13,6
DA:14,6
DA:15,3
DA:16,3
DA:17,3
DA:18,6
DA:21,4
DA:22,4
DA:23,1
DA:24,3
DA:25,3
DA:26,4
DA:29,3
DA:30,3
DA:31,1
DA:32,2
DA:33,2
DA:34,3
DA:37,3
DA:38,3
DA:39,1
DA:40,2
DA:41,2
DA:42,3
DA:45,3
DA:46,3
DA:47,3
DA:48,3
DA:49,3
DA:52,5
DA:53,5
DA:54,1
DA:55,4
DA:56,4
DA:57,5
DA:60,3
DA:61,3
DA:62,3
DA:63,2
DA:64,1
DA:66,3
DA:69,6
DA:70,6
DA:71,6
DA:72,5
DA:73,1
DA:75,6
DA:78,2
DA:79,2
DA:80,2
DA:91,1
DA:92,1
DA:93,1
DA:94,1
DA:95,1
DA:96,1
DA:99,1
DA:100,1
DA:101,1
DA:102,1
DA:103,1
DA:106,1
DA:107,1
DA:108,1
DA:109,1
DA:110,1
DA:113,1
DA:114,1
DA:115,1
DA:116,1
DA:117,1
DA:124,1
DA:125,1
DA:126,1
DA:129,1
DA:130,1
DA:131,1
DA:132,1
DA:133,1
DA:136,1
DA:137,1
DA:138,1
DA:139,1
DA:142,1
DA:143,1
DA:144,1
DA:145,1
DA:152,1
DA:153,1
DA:154,1
DA:155,1
DA:158,1
DA:159,1
DA:160,1
DA:161,1
DA:162,1
DA:169,1
DA:170,1
DA:171,1
DA:174,1
DA:175,1
DA:176,1
DA:177,1
DA:178,1
DA:185,1
DA:186,1
DA:187,1
DA:190,1
DA:191,1
DA:192,1
DA:193,1
DA:194,1
DA:201,1
DA:202,1
DA:203,1
DA:204,1
DA:205,1
DA:206,1
DA:209,1
DA:210,1
DA:211,1
DA:212,1
DA:213,1
DA:220,1
DA:221,1
DA:222,1
DA:223,1
DA:224,1
DA:227,1
DA:228,1
DA:229,1
DA:230,1
DA:231,1
DA:238,1
DA:239,1
DA:240,1
DA:241,1
DA:242,1
DA:245,1
DA:246,1
DA:247,1
DA:248,1
DA:249,1
DA:252,1
DA:253,1
DA:254,1
DA:255,1
DA:256,1
DA:259,1
DA:260,1
DA:261,1
DA:262,1
DA:263,1
DA:266,1
DA:268,1
DA:269,1
DA:270,1
DA:271,1
DA:272,1
DA:279,1
DA:280,1
DA:281,1
DA:282,1
DA:283,1
DA:284,1
DA:287,1
DA:288,1
DA:291,1
DA:294,1
DA:295,1
DA:298,1
DA:299,1
DA:302,1
DA:303,1
DA:306,1
DA:309,1
DA:310,1
DA:311,1
DA:314,1
DA:315,1
DA:316,1
DA:319,1
DA:322,1
DA:325,1
DA:326,1
DA:327,1
BRF:0
BRH:0
LF:191
LH:191
end_of_record
SF:/Users/sdicola/CascadeProjects/afritokeni-mvp/canisters/wallet_canister/src/logic/fraud_logic.rs
FN:302,_RNCNvNtNtNtCshRHBFeUD2GX_15wallet_canister5logic11fraud_logic5testss_41test_check_daily_limits_approaching_count0B9_
FN:311,_RNCNvNtNtNtCshRHBFeUD2GX_15wallet_canister5logic11fraud_logic5testss_42test_check_daily_limits_approaching_amount0B9_
FN:64,_RNvNtNtCshRHBFeUD2GX_15wallet_canister5logic11fraud_logic15is_round_number
FN:86,_RNvNtNtCshRHBFeUD2GX_15wallet_canister5logic11fraud_logic18check_daily_limits
FN:59,_RNvNtNtCshRHBFeUD2GX_15wallet_canister5logic11fraud_logic20is_suspicious_amount
FN:14,_RNvNtNtCshRHBFeUD2GX_15wallet_canister5logic11fraud_logic24check_transaction_amount
FN:69,_RNvNtNtCshRHBFeUD2GX_15wallet_canister5logic11fraud_logic27calculate_amount_risk_score
FN:234,_RNvNtNtNtCshRHBFeUD2GX_15wallet_canister5logic11fraud_logic5testss_26test_is_round_number_valid
FN:241,_RNvNtNtNtCshRHBFeUD2GX_15wallet_canister5logic11fraud_logic5testss_28test_is_round_number_invalid
FN:288,_RNvNtNtNtCshRHBFeUD2GX_15wallet_canister5logic11fraud_logic5testss_30test_check_daily_limits_normal
FN:347,_RNvNtNtNtCshRHBFeUD2GX_15wallet_canister5logic11fraud_logic5testss_30test_fraud_check_comprehensive
FN:206,_RNvNtNtNtCshRHBFeUD2GX_15wallet_canister5logic11fraud_logic5testss_36test_check_transaction_amount_at_max
FN:168,_RNvNtNtNtCshRHBFeUD2GX_15wallet_canister5logic11fraud_logic5testss_36test_check_transaction_amount_medium
FN:159,_RNvNtNtNtCshRHBFeUD2GX_15wallet_canister5logic11fraud_logic5testss_36test_check_transaction_amount_normal
FN:333,_RNvNtNtNtCshRHBFeUD2GX_15wallet_canister5logic11fraud_logic5testss_37test_check_daily_limits_both_exceeded
FN:188,_RNvNtNtNtCshRHBFeUD2GX_15wallet_canister5logic11fraud_logic5testss_37test_check_transaction_amount_blocked
FN:315,_RNvNtNtNtCshRHBFeUD2GX_15wallet_canister5logic11fraud_logic5testss_38test_check_daily_limits_exceeded_count
FN:260,_RNvNtNtNtCshRHBFeUD2GX_15wallet_canister5logic11fraud_logic5testss_39test_calculate_amount_risk_score_medium
FN:252,_RNvNtNtNtCshRHBFeUD2GX_15wallet_canister5logic11fraud_logic5testss_39test_calculate_amount_risk_score_normal
FN:324,_RNvNtNtNtCshRHBFeUD2GX_15wallet_canister5logic11fraud_logic5testss_39test_check_daily_limits_exceeded_amount
FN:276,_RNvNtNtNtCshRHBFeUD2GX_15wallet_canister5logic11fraud_logic5testss_40test_calculate_amount_risk_score_blocked
FN:178,_RNvNtNtNtCshRHBFeUD2GX_15wallet_canister5logic11fraud_logic5testss_40test_check_transaction_amount_suspicious
FN:297,_RNvNtNtNtCshRHBFeUD2GX_15wallet_canister5logic11fraud_logic5testss_41test_check_daily_limits_approaching_count
FN:218,_RNvNtNtNtCshRHBFeUD2GX_15wallet_canister5logic11fraud_logic5testss_41test_is_suspicious_amount_above_threshold
FN:224,_RNvNtNtNtCshRHBFeUD2GX_15wallet_canister5logic11fraud_logic5testss_41test_is_suspicious_amount_below_threshold
FN:306,_RNvNtNtNtCshRHBFeUD2GX_15wallet_canister5logic11fraud_logic5testss_42test_check_daily_limits_approaching_amount
FN:198,_RNvNtNtNtCshRHBFeUD2GX_15wallet_canister5logic11fraud_logic5testss_42test_check_transaction_amount_at_threshold
FN:268,_RNvNtNtNtCshRHBFeUD2GX_15wallet_canister5logic11fraud_logic5testss_43test_calculate_amount_risk_score_suspicious
FNDA:1,_RNCNvNtNtNtCshRHBFeUD2GX_15wallet_canister5logic11fraud_logic5testss_41test_check_daily_limits_approaching_count0B9_
FNDA:1,_RNCNvNtNtNtCshRHBFeUD2GX_15wallet_canister5logic11fraud_logic5testss_42test_check_daily_limits_approaching_amount0B9_
FNDA:6,_RNvNtNtCshRHBFeUD2GX_15wallet_canister5logic11fraud_logic15is_round_number
FNDA:6,_RNvNtNtCshRHBFeUD2GX_15wallet_canister5logic11fraud_logic18check_daily_limits
FNDA:4,_RNvNtNtCshRHBFeUD2GX_15wallet_canister5logic11fraud_logic20is_suspicious_amount
FNDA:10,_RNvNtNtCshRHBFeUD2GX_15wallet_canister5logic11fraud_logic24check_transaction_amount
FNDA:4,_RNvNtNtCshRHBFeUD2GX_15wallet_canister5logic11fraud_logic27calculate_amount_risk_score
FNDA:1,_RNvNtNtNtCshRHBFeUD2GX_15wallet_canister5logic11fraud_logic5testss_26test_is_round_number_valid
FNDA:1,_RNvNtNtNtCshRHBFeUD2GX_15wallet_canister5logic11fraud_logic5testss_28test_is_round_number_invalid
FNDA:1,_RNvNtNtNtCshRHBFeUD2GX_15wallet_canister5logic11fraud_logic5testss_30test_check_daily_limits_normal
FNDA:1,_RNvNtNtNtCshRHBFeUD2GX_15wallet_canister5logic11fraud_logic5testss_30test_fraud_check_comprehensive
FNDA:1,_RNvNtNtNtCshRHBFeUD2GX_15wallet_canister5logic11fraud_logic5testss_36test_check_transaction_amount_at_max
FNDA:1,_RNvNtNtNtCshRHBFeUD2GX_15wallet_canister5logic11fraud_logic5testss_36test_check_transaction_amount_medium
FNDA:1,_RNvNtNtNtCshRHBFeUD2GX_15wallet_canister5logic11fraud_logic5testss_36test_check_transaction_amount_normal
FNDA:1,_RNvNtNtNtCshRHBFeUD2GX_15wallet_canister5logic11fraud_logic5testss_37test_check_daily_limits_both_exceeded
FNDA:1,_RNvNtNtNtCshRHBFeUD2GX_15wallet_canister5logic11fraud_logic5testss_37test_check_transaction_amount_blocked
FNDA:1,_RNvNtNtNtCshRHBFeUD2GX_15wallet_canister5logic11fraud_logic5testss_38test_check_daily_limits_exceeded_count
FNDA:1,_RNvNtNtNtCshRHBFeUD2GX_15wallet_canister5logic11fraud_logic5testss_39test_calculate_amount_risk_score_medium
FNDA:1,_RNvNtNtNtCshRHBFeUD2GX_15wallet_canister5logic11fraud_logic5testss_39test_calculate_amount_risk_score_normal
FNDA:1,_RNvNtNtNtCshRHBFeUD2GX_15wallet_canister5logic11fraud_logic5testss_39test_check_daily_limits_exceeded_amount
FNDA:1,_RNvNtNtNtCshRHBFeUD2GX_15wallet_canister5logic11fraud_logic5testss_40test_calculate_amount_risk_score_blocked
FNDA:1,_RNvNtNtNtCshRHBFeUD2GX_15wallet_canister5logic11fraud_logic5testss_40test_check_transaction_amount_suspicious
FNDA:1,_RNvNtNtNtCshRHBFeUD2GX_15wallet_canister5logic11fraud_logic5testss_41test_check_daily_limits_approaching_count
FNDA:1,_RNvNtNtNtCshRHBFeUD2GX_15wallet_canister5logic11fraud_logic5testss_41test_is_suspicious_amount_above_threshold
FNDA:1,_RNvNtNtNtCshRHBFeUD2GX_15wallet_canister5logic11fraud_logic5testss_41test_is_suspicious_amount_below_threshold
FNDA:1,_RNvNtNtNtCshRHBFeUD2GX_15wallet_canister5logic11fraud_logic5testss_42test_check_daily_limits_approaching_amount
FNDA:1,_RNvNtNtNtCshRHBFeUD2GX_15wallet_canister5logic11fraud_logic5testss_42test_check_transaction_amount_at_threshold
FNDA:1,_RNvNtNtNtCshRHBFeUD2GX_15wallet_canister5logic11fraud_logic5testss_43test_calculate_amount_risk_score_suspicious
FNF:28
FNH:28
DA:14,10
DA:15,10
DA:16,10
DA:17,10
DA:18,10
DA:19,10
DA:20,10
DA:21,10
DA:22,10
DA:23,10
DA:26,10
DA:27,2
DA:28,2
DA:29,2
DA:30,2
DA:31,2
DA:32,2
DA:33,2
DA:34,2
DA:35,2
DA:37,8
DA:38,3
DA:39,3
DA:40,3
DA:41,3
DA:42,3
DA:44,5
DA:45,3
DA:46,3
DA:47,3
DA:49,10
DA:50,10
DA:51,10
DA:52,10
DA:53,10
DA:54,10
DA:55,10
DA:56,10
DA:59,4
DA:60,4
DA:61,4
DA:64,6
DA:65,6
DA:66,6
DA:69,4
DA:70,4
DA:71,4
DA:72,4
DA:73,4
DA:74,4
DA:75,1
DA:76,3
DA:77,1
DA:78,2
DA:79,1
DA:81,1
DA:83,4
DA:86,6
DA:87,6
DA:88,6
DA:89,6
DA:90,6
DA:91,6
DA:92,6
DA:93,6
DA:94,6
DA:95,6
DA:96,6
DA:99,6
DA:100,2
DA:101,2
DA:102,2
DA:103,2
DA:104,2
DA:105,2
DA:106,2
DA:107,2
DA:108,4
DA:111,6
DA:112,2
DA:113,2
DA:114,2
DA:115,2
DA:116,2
DA:117,2
DA:118,2
DA:119,2
DA:120,4
DA:123,6
DA:124,1
DA:125,1
DA:126,1
DA:127,1
DA:128,1
DA:129,1
DA:130,5
DA:132,6
DA:133,1
DA:134,1
DA:135,1
DA:136,1
DA:137,1
DA:138,1
DA:139,5
DA:141,6
DA:142,6
DA:143,6
DA:144,6
DA:145,6
DA:146,6
DA:147,6
DA:148,6
DA:159,1
DA:160,1
DA:161,1
DA:162,1
DA:163,1
DA:164,1
DA:165,1
DA:168,1
DA:169,1
DA:170,1
DA:171,1
DA:172,1
DA:173,1
DA:174,1
DA:175,1
DA:178,1
DA:179,1
DA:180,1
DA:181,1
DA:182,1
DA:183,1
DA:184,1
DA:185,1
DA:188,1
DA:189,1
DA:190,1
DA:191,1
DA:192,1
DA:193,1
DA:194,1
DA:195,1
DA:198,1
DA:199,1
DA:200,1
DA:201,1
DA:202,1
DA:203,1
DA:206,1
DA:207,1
DA:208,1
DA:209,1
DA:210,1
DA:211,1
DA:218,1
DA:219,1
DA:220,1
DA:221,1
DA:224,1
DA:225,1
DA:226,1
DA:227,1
DA:234,1
DA:235,1
DA:236,1
DA:237,1
DA:238,1
DA:241,1
DA:242,1
DA:243,1
DA:244,1
DA:245,1
DA:252,1
DA:253,1
DA:254,1
DA:257,1
DA:260,1
DA:261,1
DA:262,1
DA:265,1
DA:268,1
DA:269,1
DA:270,1
DA:273,1
DA:276,1
DA:277,1
DA:278,1
DA:281,1
DA:288,1
DA:289,1
DA:290,1
DA:291,1
DA:292,1
DA:293,1
DA:294,1
DA:297,1
DA:298,1
DA:299,1
DA:300,1
DA:301,1
DA:302,1
DA:303,1
DA:306,1
DA:307,1
DA:308,1
DA:309,1
DA:310,1
DA:311,1
DA:312,1
DA:315,1
DA:316,1
DA:317,1
DA:318,1
DA:319,1
DA:320,1
DA:321,1
DA:324,1
DA:325,1
DA:326,1
DA:327,1
DA:328,1
DA:329,1
DA:330,1
DA:333,1
DA:334,1
DA:335,1
DA:336,1
DA:337,1
DA:338,1
DA:339,1
DA:340,1
DA:347,1
DA:348,1
DA:349,1
DA:352,1
DA:353,1
DA:354,1
DA:357,1
DA:358,1
DA:359,1
DA:362,1
DA:363,1
DA:364,1
DA:365,1
DA:368,1
DA:369,1
DA:370,1
DA:371,1
BRF:0
BRH:0
LF:251
LH:251
end_of_record
SF:/Users/sdicola/CascadeProjects/afritokeni-mvp/canisters/wallet_canister/src/logic/transfer_logic.rs
FN:78,_RNvNtNtCshRHBFeUD2GX_15wallet_canister5logic14transfer_logic13calculate_fee
FN:59,_RNvNtNtCshRHBFeUD2GX_15wallet_canister5logic14transfer_logic21calculate_new_balance
FN:73,_RNvNtNtCshRHBFeUD2GX_15wallet_canister5logic14transfer_logic23generate_transaction_id
FN:44,_RNvNtNtCshRHBFeUD2GX_15wallet_canister5logic14transfer_logic23validate_currency_match
FN:6,_RNvNtNtCshRHBFeUD2GX_15wallet_canister5logic14transfer_logic24validate_amount_positive
FN:94,_RNvNtNtCshRHBFeUD2GX_15wallet_canister5logic14transfer_logic26calculate_agent_commission
FN:66,_RNvNtNtCshRHBFeUD2GX_15wallet_canister5logic14transfer_logic26calculate_balance_addition
FN:28,_RNvNtNtCshRHBFeUD2GX_15wallet_canister5logic14transfer_logic26validate_not_self_transfer
FN:14,_RNvNtNtCshRHBFeUD2GX_15wallet_canister5logic14transfer_logic27validate_sufficient_balance
FN:36,_RNvNtNtCshRHBFeUD2GX_15wallet_canister5logic14transfer_logic29validate_identifier_not_empty
FN:264,_RNvNtNtNtCshRHBFeUD2GX_15wallet_canister5logic14transfer_logic5testss_22test_calculate_fee_max
FN:259,_RNvNtNtNtCshRHBFeUD2GX_15wallet_canister5logic14transfer_logic5testss_23test_calculate_fee_zero
FN:247,_RNvNtNtNtCshRHBFeUD2GX_15wallet_canister5logic14transfer_logic5testss_24test_calculate_fee_valid
FN:277,_RNvNtNtNtCshRHBFeUD2GX_15wallet_canister5logic14transfer_logic5testss_27test_calculate_fee_overflow
FN:333,_RNvNtNtNtCshRHBFeUD2GX_15wallet_canister5logic14transfer_logic5testss_28test_valid_transfer_scenario
FN:270,_RNvNtNtNtCshRHBFeUD2GX_15wallet_canister5logic14transfer_logic5testss_30test_calculate_fee_invalid_bps
FN:349,_RNvNtNtNtCshRHBFeUD2GX_15wallet_canister5logic14transfer_logic5testss_31test_invalid_transfer_scenarios
FN:199,_RNvNtNtNtCshRHBFeUD2GX_15wallet_canister5logic14transfer_logic5testss_32test_calculate_new_balance_valid
FN:182,_RNvNtNtNtCshRHBFeUD2GX_15wallet_canister5logic14transfer_logic5testss_33test_validate_currency_match_same
FN:125,_RNvNtNtNtCshRHBFeUD2GX_15wallet_canister5logic14transfer_logic5testss_34test_validate_amount_positive_zero
FN:230,_RNvNtNtNtCshRHBFeUD2GX_15wallet_canister5logic14transfer_logic5testss_35test_generate_transaction_id_format
FN:236,_RNvNtNtNtCshRHBFeUD2GX_15wallet_canister5logic14transfer_logic5testss_35test_generate_transaction_id_unique
FN:118,_RNvNtNtNtCshRHBFeUD2GX_15wallet_canister5logic14transfer_logic5testss_35test_validate_amount_positive_valid
FN:136,_RNvNtNtNtCshRHBFeUD2GX_15wallet_canister5logic14transfer_logic5testss_35test_validate_sufficient_balance_ok
FN:300,_RNvNtNtNtCshRHBFeUD2GX_15wallet_canister5logic14transfer_logic5testss_36test_calculate_agent_commission_zero
FN:206,_RNvNtNtNtCshRHBFeUD2GX_15wallet_canister5logic14transfer_logic5testss_36test_calculate_new_balance_underflow
FN:171,_RNvNtNtNtCshRHBFeUD2GX_15wallet_canister5logic14transfer_logic5testss_36test_validate_not_self_transfer_same
FN:288,_RNvNtNtNtCshRHBFeUD2GX_15wallet_canister5logic14transfer_logic5testss_37test_calculate_agent_commission_valid
FN:213,_RNvNtNtNtCshRHBFeUD2GX_15wallet_canister5logic14transfer_logic5testss_37test_calculate_balance_addition_valid
FN:188,_RNvNtNtNtCshRHBFeUD2GX_15wallet_canister5logic14transfer_logic5testss_38test_validate_currency_match_different
FN:149,_RNvNtNtNtCshRHBFeUD2GX_15wallet_canister5logic14transfer_logic5testss_38test_validate_sufficient_balance_exact
FN:305,_RNvNtNtNtCshRHBFeUD2GX_15wallet_canister5logic14transfer_logic5testss_39test_calculate_agent_commission_invalid
FN:219,_RNvNtNtNtCshRHBFeUD2GX_15wallet_canister5logic14transfer_logic5testss_40test_calculate_balance_addition_overflow
FN:316,_RNvNtNtNtCshRHBFeUD2GX_15wallet_canister5logic14transfer_logic5testss_40test_validate_identifier_not_empty_valid
FN:165,_RNvNtNtNtCshRHBFeUD2GX_15wallet_canister5logic14transfer_logic5testss_41test_validate_not_self_transfer_different
FN:154,_RNvNtNtNtCshRHBFeUD2GX_15wallet_canister5logic14transfer_logic5testss_41test_validate_sufficient_balance_overflow
FN:322,_RNvNtNtNtCshRHBFeUD2GX_15wallet_canister5logic14transfer_logic5testss_42test_validate_identifier_not_empty_invalid
FN:142,_RNvNtNtNtCshRHBFeUD2GX_15wallet_canister5logic14transfer_logic5testss_45test_validate_sufficient_balance_insufficient
FN:86,_RNCNvNtNtCshRHBFeUD2GX_15wallet_canister5logic14transfer_logic13calculate_fee0B7_
FN:88,_RNCNvNtNtCshRHBFeUD2GX_15wallet_canister5logic14transfer_logic13calculate_fees_0B7_
FN:62,_RNCNvNtNtCshRHBFeUD2GX_15wallet_canister5logic14transfer_logic21calculate_new_balance0B7_
FN:102,_RNCNvNtNtCshRHBFeUD2GX_15wallet_canister5logic14transfer_logic26calculate_agent_commission0B7_
FN:104,_RNCNvNtNtCshRHBFeUD2GX_15wallet_canister5logic14transfer_logic26calculate_agent_commissions_0B7_
FN:69,_RNCNvNtNtCshRHBFeUD2GX_15wallet_canister5logic14transfer_logic26calculate_balance_addition0B7_
FN:16,_RNCNvNtNtCshRHBFeUD2GX_15wallet_canister5logic14transfer_logic27validate_sufficient_balance0B7_
FNDA:8,_RNvNtNtCshRHBFeUD2GX_15wallet_canister5logic14transfer_logic13calculate_fee
FNDA:5,_RNvNtNtCshRHBFeUD2GX_15wallet_canister5logic14transfer_logic21calculate_new_balance
FNDA:3,_RNvNtNtCshRHBFeUD2GX_15wallet_canister5logic14transfer_logic23generate_transaction_id
FNDA:4,_RNvNtNtCshRHBFeUD2GX_15wallet_canister5logic14transfer_logic23validate_currency_match
FNDA:6,_RNvNtNtCshRHBFeUD2GX_15wallet_canister5logic14transfer_logic24validate_amount_positive
FNDA:5,_RNvNtNtCshRHBFeUD2GX_15wallet_canister5logic14transfer_logic26calculate_agent_commission
FNDA:3,_RNvNtNtCshRHBFeUD2GX_15wallet_canister5logic14transfer_logic26calculate_balance_addition
FNDA:5,_RNvNtNtCshRHBFeUD2GX_15wallet_canister5logic14transfer_logic26validate_not_self_transfer
FNDA:7,_RNvNtNtCshRHBFeUD2GX_15wallet_canister5logic14transfer_logic27validate_sufficient_balance
FNDA:3,_RNvNtNtCshRHBFeUD2GX_15wallet_canister5logic14transfer_logic29validate_identifier_not_empty
FNDA:1,_RNvNtNtNtCshRHBFeUD2GX_15wallet_canister5logic14transfer_logic5testss_22test_calculate_fee_max
FNDA:1,_RNvNtNtNtCshRHBFeUD2GX_15wallet_canister5logic14transfer_logic5testss_23test_calculate_fee_zero
FNDA:1,_RNvNtNtNtCshRHBFeUD2GX_15wallet_canister5logic14transfer_logic5testss_24test_calculate_fee_valid
FNDA:1,_RNvNtNtNtCshRHBFeUD2GX_15wallet_canister5logic14transfer_logic5testss_27test_calculate_fee_overflow
FNDA:1,_RNvNtNtNtCshRHBFeUD2GX_15wallet_canister5logic14transfer_logic5testss_28test_valid_transfer_scenario
FNDA:1,_RNvNtNtNtCshRHBFeUD2GX_15wallet_canister5logic14transfer_logic5testss_30test_calculate_fee_invalid_bps
FNDA:1,_RNvNtNtNtCshRHBFeUD2GX_15wallet_canister5logic14transfer_logic5testss_31test_invalid_transfer_scenarios
FNDA:1,_RNvNtNtNtCshRHBFeUD2GX_15wallet_canister5logic14transfer_logic5testss_32test_calculate_new_balance_valid
FNDA:1,_RNvNtNtNtCshRHBFeUD2GX_15wallet_canister5logic14transfer_logic5testss_33test_validate_currency_match_same
FNDA:1,_RNvNtNtNtCshRHBFeUD2GX_15wallet_canister5logic14transfer_logic5testss_34test_validate_amount_positive_zero
FNDA:1,_RNvNtNtNtCshRHBFeUD2GX_15wallet_canister5logic14transfer_logic5testss_35test_generate_transaction_id_format
FNDA:1,_RNvNtNtNtCshRHBFeUD2GX_15wallet_canister5logic14transfer_logic5testss_35test_generate_transaction_id_unique
FNDA:1,_RNvNtNtNtCshRHBFeUD2GX_15wallet_canister5logic14transfer_logic5testss_35test_validate_amount_positive_valid
FNDA:1,_RNvNtNtNtCshRHBFeUD2GX_15wallet_canister5logic14transfer_logic5testss_35test_validate_sufficient_balance_ok
FNDA:1,_RNvNtNtNtCshRHBFeUD2GX_15wallet_canister5logic14transfer_logic5testss_36test_calculate_agent_commission_zero
FNDA:1,_RNvNtNtNtCshRHBFeUD2GX_15wallet_canister5logic14transfer_logic5testss_36test_calculate_new_balance_underflow
FNDA:1,_RNvNtNtNtCshRHBFeUD2GX_15wallet_canister5logic14transfer_logic5testss_36test_validate_not_self_transfer_same
FNDA:1,_RNvNtNtNtCshRHBFeUD2GX_15wallet_canister5logic14transfer_logic5testss_37test_calculate_agent_commission_valid
FNDA:1,_RNvNtNtNtCshRHBFeUD2GX_15wallet_canister5logic14transfer_logic5testss_37test_calculate_balance_addition_valid
FNDA:1,_RNvNtNtNtCshRHBFeUD2GX_15wallet_canister5logic14transfer_logic5testss_38test_validate_currency_match_different
FNDA:1,_RNvNtNtNtCshRHBFeUD2GX_15wallet_canister5logic14transfer_logic5testss_38test_validate_sufficient_balance_exact
FNDA:1,_RNvNtNtNtCshRHBFeUD2GX_15wallet_canister5logic14transfer_logic5testss_39test_calculate_agent_commission_invalid
FNDA:1,_RNvNtNtNtCshRHBFeUD2GX_15wallet_canister5logic14transfer_logic5testss_40test_calculate_balance_addition_overflow
FNDA:1,_RNvNtNtNtCshRHBFeUD2GX_15wallet_canister5logic14transfer_logic5testss_40test_validate_identifier_not_empty_valid
FNDA:1,_RNvNtNtNtCshRHBFeUD2GX_15wallet_canister5logic14transfer_logic5testss_41test_validate_not_self_transfer_different
FNDA:1,_RNvNtNtNtCshRHBFeUD2GX_15wallet_canister5logic14transfer_logic5testss_41test_validate_sufficient_balance_overflow
FNDA:1,_RNvNtNtNtCshRHBFeUD2GX_15wallet_canister5logic14transfer_logic5testss_42test_validate_identifier_not_empty_invalid
FNDA:1,_RNvNtNtNtCshRHBFeUD2GX_15wallet_canister5logic14transfer_logic5testss_45test_validate_sufficient_balance_insufficient
FNDA:1,_RNCNvNtNtCshRHBFeUD2GX_15wallet_canister5logic14transfer_logic13calculate_fee0B7_
FNDA:0,_RNCNvNtNtCshRHBFeUD2GX_15wallet_canister5logic14transfer_logic13calculate_fees_0B7_
FNDA:1,_RNCNvNtNtCshRHBFeUD2GX_15wallet_canister5logic14transfer_logic21calculate_new_balance0B7_
FNDA:0,_RNCNvNtNtCshRHBFeUD2GX_15wallet_canister5logic14transfer_logic26calculate_agent_commission0B7_
FNDA:0,_RNCNvNtNtCshRHBFeUD2GX_15wallet_canister5logic14transfer_logic26calculate_agent_commissions_0B7_
FNDA:1,_RNCNvNtNtCshRHBFeUD2GX_15wallet_canister5logic14transfer_logic26calculate_balance_addition0B7_
FNDA:1,_RNCNvNtNtCshRHBFeUD2GX_15wallet_canister5logic14transfer_logic27validate_sufficient_balance0B7_
FNF:45
FNH:42
DA:6,6
DA:7,6
DA:8,2
DA:9,4
DA:10,4
DA:11,6
DA:14,7
DA:15,7
DA:16,7
DA:18,6
DA:19,2
DA:20,2
DA:21,2
DA:22,2
DA:23,4
DA:24,4
DA:25,7
DA:28,5
DA:29,5
DA:30,2
DA:31,3
DA:32,3
DA:33,5
DA:36,3
DA:37,3
DA:38,1
DA:39,2
DA:40,2
DA:41,3
DA:44,4
DA:45,4
DA:46,4
DA:47,4
DA:48,4
DA:49,2
DA:50,2
DA:51,2
DA:52,2
DA:53,2
DA:54,2
DA:55,2
DA:56,4
DA:59,5
DA:60,5
DA:61,5
DA:62,5
DA:63,5
DA:66,3
DA:67,3
DA:68,3
DA:69,3
DA:70,3
DA:73,3
DA:74,3
DA:75,3
DA:78,8
DA:79,8
DA:80,1
DA:81,7
DA:84,7
DA:85,7
DA:86,7
DA:87,6
DA:88,6
DA:90,6
DA:91,8
DA:94,5
DA:95,5
DA:96,1
DA:97,4
DA:100,4
DA:101,4
DA:102,4
DA:103,4
DA:104,4
DA:106,4
DA:107,5
DA:118,1
DA:119,1
DA:120,1
DA:121,1
DA:122,1
DA:125,1
DA:126,1
DA:127,1
DA:128,1
DA:129,1
DA:136,1
DA:137,1
DA:138,1
DA:139,1
DA:142,1
DA:143,1
DA:144,1
DA:145,1
DA:146,1
DA:149,1
DA:150,1
DA:151,1
DA:154,1
DA:155,1
DA:156,1
DA:157,1
DA:158,1
DA:165,1
DA:166,1
DA:167,1
DA:168,1
DA:171,1
DA:172,1
DA:173,1
DA:174,1
DA:175,1
DA:182,1
DA:183,1
DA:184,1
DA:185,1
DA:188,1
DA:189,1
DA:190,1
DA:191,1
DA:192,1
DA:199,1
DA:200,1
DA:201,1
DA:202,1
DA:203,1
DA:206,1
DA:207,1
DA:208,1
DA:209,1
DA:210,1
DA:213,1
DA:214,1
DA:215,1
DA:216,1
DA:219,1
DA:220,1
DA:221,1
DA:222,1
DA:223,1
DA:230,1
DA:231,1
DA:232,1
DA:233,1
DA:236,1
DA:237,1
DA:238,1
DA:239,1
DA:240,1
DA:247,1
DA:249,1
DA:252,1
DA:255,1
DA:256,1
DA:259,1
DA:260,1
DA:261,1
DA:264,1
DA:266,1
DA:267,1
DA:270,1
DA:271,1
DA:272,1
DA:273,1
DA:274,1
DA:277,1
DA:278,1
DA:279,1
DA:280,1
DA:281,1
DA:288,1
DA:290,1
DA:293,1
DA:296,1
DA:297,1
DA:300,1
DA:301,1
DA:302,1
DA:305,1
DA:306,1
DA:307,1
DA:308,1
DA:309,1
DA:316,1
DA:317,1
DA:318,1
DA:319,1
DA:322,1
DA:323,1
DA:324,1
DA:325,1
DA:326,1
DA:333,1
DA:334,1
DA:335,1
DA:336,1
DA:337,1
DA:338,1
DA:340,1
DA:341,1
DA:342,1
DA:344,1
DA:345,1
DA:346,1
DA:349,1
DA:351,1
DA:354,1
DA:357,1
DA:360,1
DA:361,1
BRF:0
BRH:0
LF:218
LH:215
end_of_record
SF:/Users/sdicola/CascadeProjects/afritokeni-mvp/canisters/wallet_canister/src/services/data_client.rs
FN:121,_RNvNtNtCshRHBFeUD2GX_15wallet_canister8services11data_client10get_escrow
FN:105,_RNvNtNtCshRHBFeUD2GX_15wallet_canister8services11data_client12store_escrow
FN:10,_RNvNtNtCshRHBFeUD2GX_15wallet_canister8services11data_client16get_fiat_balance
FN:27,_RNvNtNtCshRHBFeUD2GX_15wallet_canister8services11data_client16set_fiat_balance
FN:68,_RNvNtNtCshRHBFeUD2GX_15wallet_canister8services11data_client17store_transaction
FN:137,_RNvNtNtCshRHBFeUD2GX_15wallet_canister8services11data_client20update_escrow_status
FN:84,_RNvNtNtCshRHBFeUD2GX_15wallet_canister8services11data_client21get_user_transactions
FN:48,_RNvNtNtCshRHBFeUD2GX_15wallet_canister8services11data_client21update_crypto_balance
FN:127,_RNCNCNvNtNtCshRHBFeUD2GX_15wallet_canister8services11data_client10get_escrow00B9_
FN:131,_RNCNCNvNtNtCshRHBFeUD2GX_15wallet_canister8services11data_client10get_escrow0s_0B9_
FN:111,_RNCNCNvNtNtCshRHBFeUD2GX_15wallet_canister8services11data_client12store_escrow00B9_
FN:115,_RNCNCNvNtNtCshRHBFeUD2GX_15wallet_canister8services11data_client12store_escrow0s_0B9_
FN:16,_RNCNCNvNtNtCshRHBFeUD2GX_15wallet_canister8services11data_client16get_fiat_balance00B9_
FN:20,_RNCNCNvNtNtCshRHBFeUD2GX_15wallet_canister8services11data_client16get_fiat_balance0s_0B9_
FN:37,_RNCNCNvNtNtCshRHBFeUD2GX_15wallet_canister8services11data_client16set_fiat_balance00B9_
FN:41,_RNCNCNvNtNtCshRHBFeUD2GX_15wallet_canister8services11data_client16set_fiat_balance0s_0B9_
FN:74,_RNCNCNvNtNtCshRHBFeUD2GX_15wallet_canister8services11data_client17store_transaction00B9_
FN:78,_RNCNCNvNtNtCshRHBFeUD2GX_15wallet_canister8services11data_client17store_transaction0s_0B9_
FN:143,_RNCNCNvNtNtCshRHBFeUD2GX_15wallet_canister8services11data_client20update_escrow_status00B9_
FN:147,_RNCNCNvNtNtCshRHBFeUD2GX_15wallet_canister8services11data_client20update_escrow_status0s_0B9_
FN:94,_RNCNCNvNtNtCshRHBFeUD2GX_15wallet_canister8services11data_client21get_user_transactions00B9_
FN:98,_RNCNCNvNtNtCshRHBFeUD2GX_15wallet_canister8services11data_client21get_user_transactions0s_0B9_
FN:58,_RNCNCNvNtNtCshRHBFeUD2GX_15wallet_canister8services11data_client21update_crypto_balance00B9_
FN:62,_RNCNCNvNtNtCshRHBFeUD2GX_15wallet_canister8services11data_client21update_crypto_balance0s_0B9_
FN:121,_RNCNvNtNtCshRHBFeUD2GX_15wallet_canister8services11data_client10get_escrow0B7_
FN:105,_RNCNvNtNtCshRHBFeUD2GX_15wallet_canister8services11data_client12store_escrow0B7_
FN:10,_RNCNvNtNtCshRHBFeUD2GX_15wallet_canister8services11data_client16get_fiat_balance0B7_
FN:31,_RNCNvNtNtCshRHBFeUD2GX_15wallet_canister8services11data_client16set_fiat_balance0B7_
FN:68,_RNCNvNtNtCshRHBFeUD2GX_15wallet_canister8services11data_client17store_transaction0B7_
FN:137,_RNCNvNtNtCshRHBFeUD2GX_15wallet_canister8services11data_client20update_escrow_status0B7_
FN:88,_RNCNvNtNtCshRHBFeUD2GX_15wallet_canister8services11data_client21get_user_transactions0B7_
FN:52,_RNCNvNtNtCshRHBFeUD2GX_15wallet_canister8services11data_client21update_crypto_balance0B7_
FNDA:0,_RNvNtNtCshRHBFeUD2GX_15wallet_canister8services11data_client10get_escrow
FNDA:0,_RNvNtNtCshRHBFeUD2GX_15wallet_canister8services11data_client12store_escrow
FNDA:0,_RNvNtNtCshRHBFeUD2GX_15wallet_canister8services11data_client16get_fiat_balance
FNDA:0,_RNvNtNtCshRHBFeUD2GX_15wallet_canister8services11data_client16set_fiat_balance
FNDA:0,_RNvNtNtCshRHBFeUD2GX_15wallet_canister8services11data_client17store_transaction
FNDA:0,_RNvNtNtCshRHBFeUD2GX_15wallet_canister8services11data_client20update_escrow_status
FNDA:0,_RNvNtNtCshRHBFeUD2GX_15wallet_canister8services11data_client21get_user_transactions
FNDA:0,_RNvNtNtCshRHBFeUD2GX_15wallet_canister8services11data_client21update_crypto_balance
FNDA:0,_RNCNCNvNtNtCshRHBFeUD2GX_15wallet_canister8services11data_client10get_escrow00B9_
FNDA:0,_RNCNCNvNtNtCshRHBFeUD2GX_15wallet_canister8services11data_client10get_escrow0s_0B9_
FNDA:0,_RNCNCNvNtNtCshRHBFeUD2GX_15wallet_canister8services11data_client12store_escrow00B9_
FNDA:0,_RNCNCNvNtNtCshRHBFeUD2GX_15wallet_canister8services11data_client12store_escrow0s_0B9_
FNDA:0,_RNCNCNvNtNtCshRHBFeUD2GX_15wallet_canister8services11data_client16get_fiat_balance00B9_
FNDA:0,_RNCNCNvNtNtCshRHBFeUD2GX_15wallet_canister8services11data_client16get_fiat_balance0s_0B9_
FNDA:0,_RNCNCNvNtNtCshRHBFeUD2GX_15wallet_canister8services11data_client16set_fiat_balance00B9_
FNDA:0,_RNCNCNvNtNtCshRHBFeUD2GX_15wallet_canister8services11data_client16set_fiat_balance0s_0B9_
FNDA:0,_RNCNCNvNtNtCshRHBFeUD2GX_15wallet_canister8services11data_client17store_transaction00B9_
FNDA:0,_RNCNCNvNtNtCshRHBFeUD2GX_15wallet_canister8services11data_client17store_transaction0s_0B9_
FNDA:0,_RNCNCNvNtNtCshRHBFeUD2GX_15wallet_canister8services11data_client20update_escrow_status00B9_
FNDA:0,_RNCNCNvNtNtCshRHBFeUD2GX_15wallet_canister8services11data_client20update_escrow_status0s_0B9_
FNDA:0,_RNCNCNvNtNtCshRHBFeUD2GX_15wallet_canister8services11data_client21get_user_transactions00B9_
FNDA:0,_RNCNCNvNtNtCshRHBFeUD2GX_15wallet_canister8services11data_client21get_user_transactions0s_0B9_
FNDA:0,_RNCNCNvNtNtCshRHBFeUD2GX_15wallet_canister8services11data_client21update_crypto_balance00B9_
FNDA:0,_RNCNCNvNtNtCshRHBFeUD2GX_15wallet_canister8services11data_client21update_crypto_balance0s_0B9_
FNDA:0,_RNCNvNtNtCshRHBFeUD2GX_15wallet_canister8services11data_client10get_escrow0B7_
FNDA:0,_RNCNvNtNtCshRHBFeUD2GX_15wallet_canister8services11data_client12store_escrow0B7_
FNDA:0,_RNCNvNtNtCshRHBFeUD2GX_15wallet_canister8services11data_client16get_fiat_balance0B7_
FNDA:0,_RNCNvNtNtCshRHBFeUD2GX_15wallet_canister8services11data_client16set_fiat_balance0B7_
FNDA:0,_RNCNvNtNtCshRHBFeUD2GX_15wallet_canister8services11data_client17store_transaction0B7_
FNDA:0,_RNCNvNtNtCshRHBFeUD2GX_15wallet_canister8services11data_client20update_escrow_status0B7_
FNDA:0,_RNCNvNtNtCshRHBFeUD2GX_15wallet_canister8services11data_client21get_user_transactions0B7_
FNDA:0,_RNCNvNtNtCshRHBFeUD2GX_15wallet_canister8services11data_client21update_crypto_balance0B7_
FNF:32
FNH:0
DA:10,0
DA:11,0
DA:13,0
DA:14,0
DA:15,0
DA:16,0
DA:18,0
DA:19,0
DA:20,0
DA:22,0
DA:23,0
DA:27,0
DA:28,0
DA:29,0
DA:30,0
DA:31,0
DA:32,0
DA:34,0
DA:35,0
DA:36,0
DA:37,0
DA:39,0
DA:40,0
DA:41,0
DA:43,0
DA:44,0
DA:48,0
DA:49,0
DA:50,0
DA:51,0
DA:52,0
DA:53,0
DA:55,0
DA:56,0
DA:57,0
DA:58,0
DA:60,0
DA:61,0
DA:62,0
DA:64,0
DA:65,0
DA:68,0
DA:69,0
DA:71,0
DA:72,0
DA:73,0
DA:74,0
DA:76,0
DA:77,0
DA:78,0
DA:80,0
DA:81,0
DA:84,0
DA:85,0
DA:86,0
DA:87,0
DA:88,0
DA:89,0
DA:91,0
DA:92,0
DA:93,0
DA:94,0
DA:96,0
DA:97,0
DA:98,0
DA:100,0
DA:101,0
DA:105,0
DA:106,0
DA:108,0
DA:109,0
DA:110,0
DA:111,0
DA:113,0
DA:114,0
DA:115,0
DA:117,0
DA:118,0
DA:121,0
DA:122,0
DA:124,0
DA:125,0
DA:126,0
DA:127,0
DA:129,0
DA:130,0
DA:131,0
DA:133,0
DA:134,0
DA:137,0
DA:138,0
DA:140,0
DA:141,0
DA:142,0
DA:143,0
DA:145,0
DA:146,0
DA:147,0
DA:149,0
DA:150,0
BRF:0
BRH:0
LF:124
LH:0
end_of_record
SF:/Users/sdicola/CascadeProjects/afritokeni-mvp/canisters/wallet_canister/src/services/exchange_rate.rs
FN:9,_RINvXNtNtCshRHBFeUD2GX_15wallet_canister8services13exchange_rateNtB3_11HttpRequestNtNtCs5Z3inzGgH5w_6candid5types10CandidType13idl_serializepEB7_
FN:24,_RINvXs0_NtNtCshRHBFeUD2GX_15wallet_canister8services13exchange_rateNtB6_10HttpMethodNtNtCs5Z3inzGgH5w_6candid5types10CandidType13idl_serializepEBa_
FN:29,_RINvXs3_NtNtCshRHBFeUD2GX_15wallet_canister8services13exchange_rateNtB6_12HttpResponseNtNtCs5Z3inzGgH5w_6candid5types10CandidType13idl_serializepEBa_
FN:18,_RINvXs_NtNtCshRHBFeUD2GX_15wallet_canister8services13exchange_rateNtB5_10HttpHeaderNtNtCs5Z3inzGgH5w_6candid5types10CandidType13idl_serializepEB9_
FN:61,_RNCNCNvNtNtCshRHBFeUD2GX_15wallet_canister8services13exchange_rate17get_btc_usd_price00B9_
FN:91,_RNCNCNvNtNtCshRHBFeUD2GX_15wallet_canister8services13exchange_rate18get_usdc_usd_price00B9_
FN:119,_RNCNCNvNtNtCshRHBFeUD2GX_15wallet_canister8services13exchange_rate20get_fiat_to_usd_rate00B9_
FN:37,_RNCNvNtNtCshRHBFeUD2GX_15wallet_canister8services13exchange_rate17get_btc_usd_price0B7_
FN:67,_RNCNvNtNtCshRHBFeUD2GX_15wallet_canister8services13exchange_rate18get_usdc_usd_price0B7_
FN:97,_RNCNvNtNtCshRHBFeUD2GX_15wallet_canister8services13exchange_rate20get_fiat_to_usd_rate0B7_
FN:215,_RNCNvNtNtCshRHBFeUD2GX_15wallet_canister8services13exchange_rate21convert_fiat_currency0B7_
FN:149,_RNCNvNtNtCshRHBFeUD2GX_15wallet_canister8services13exchange_rate26calculate_crypto_from_fiat0B7_
FN:181,_RNCNvNtNtCshRHBFeUD2GX_15wallet_canister8services13exchange_rate26calculate_fiat_from_crypto0B7_
FN:37,_RNvNtNtCshRHBFeUD2GX_15wallet_canister8services13exchange_rate17get_btc_usd_price
FN:67,_RNvNtNtCshRHBFeUD2GX_15wallet_canister8services13exchange_rate18get_usdc_usd_price
FN:97,_RNvNtNtCshRHBFeUD2GX_15wallet_canister8services13exchange_rate20get_fiat_to_usd_rate
FN:211,_RNvNtNtCshRHBFeUD2GX_15wallet_canister8services13exchange_rate21convert_fiat_currency
FN:145,_RNvNtNtCshRHBFeUD2GX_15wallet_canister8services13exchange_rate26calculate_crypto_from_fiat
FN:177,_RNvNtNtCshRHBFeUD2GX_15wallet_canister8services13exchange_rate26calculate_fiat_from_crypto
FN:303,_RNvNtNtNtCshRHBFeUD2GX_15wallet_canister8services13exchange_rate5testss_20test_mock_fiat_rates
FN:276,_RNvNtNtNtCshRHBFeUD2GX_15wallet_canister8services13exchange_rate5testss_29test_parse_coingecko_response
FN:288,_RNvNtNtNtCshRHBFeUD2GX_15wallet_canister8services13exchange_rate5testss_32test_parse_exchangerate_response
FN:235,_RNvNtNtCshRHBFeUD2GX_15wallet_canister8services13exchange_rate24parse_coingecko_response
FN:125,_RNvNtNtCshRHBFeUD2GX_15wallet_canister8services13exchange_rate25get_mock_fiat_to_usd_rate
FN:252,_RNvNtNtCshRHBFeUD2GX_15wallet_canister8services13exchange_rate27parse_exchangerate_response
FN:237,_RNCNvNtNtCshRHBFeUD2GX_15wallet_canister8services13exchange_rate24parse_coingecko_response0B7_
FN:249,_RNCNvNtNtCshRHBFeUD2GX_15wallet_canister8services13exchange_rate24parse_coingecko_responses0_0B7_
FN:244,_RNCNvNtNtCshRHBFeUD2GX_15wallet_canister8services13exchange_rate24parse_coingecko_responses_0B7_
FN:254,_RNCNvNtNtCshRHBFeUD2GX_15wallet_canister8services13exchange_rate27parse_exchangerate_response0B7_
FN:262,_RNCNvNtNtCshRHBFeUD2GX_15wallet_canister8services13exchange_rate27parse_exchangerate_responses0_0B7_
FN:268,_RNCNvNtNtCshRHBFeUD2GX_15wallet_canister8services13exchange_rate27parse_exchangerate_responses1_0B7_
FN:261,_RNCNvNtNtCshRHBFeUD2GX_15wallet_canister8services13exchange_rate27parse_exchangerate_responses_0B7_
FNDA:0,_RINvXNtNtCshRHBFeUD2GX_15wallet_canister8services13exchange_rateNtB3_11HttpRequestNtNtCs5Z3inzGgH5w_6candid5types10CandidType13idl_serializepEB7_
FNDA:0,_RINvXs0_NtNtCshRHBFeUD2GX_15wallet_canister8services13exchange_rateNtB6_10HttpMethodNtNtCs5Z3inzGgH5w_6candid5types10CandidType13idl_serializepEBa_
FNDA:0,_RINvXs3_NtNtCshRHBFeUD2GX_15wallet_canister8services13exchange_rateNtB6_12HttpResponseNtNtCs5Z3inzGgH5w_6candid5types10CandidType13idl_serializepEBa_
FNDA:0,_RINvXs_NtNtCshRHBFeUD2GX_15wallet_canister8services13exchange_rateNtB5_10HttpHeaderNtNtCs5Z3inzGgH5w_6candid5types10CandidType13idl_serializepEB9_
FNDA:0,_RNCNCNvNtNtCshRHBFeUD2GX_15wallet_canister8services13exchange_rate17get_btc_usd_price00B9_
FNDA:0,_RNCNCNvNtNtCshRHBFeUD2GX_15wallet_canister8services13exchange_rate18get_usdc_usd_price00B9_
FNDA:0,_RNCNCNvNtNtCshRHBFeUD2GX_15wallet_canister8services13exchange_rate20get_fiat_to_usd_rate00B9_
FNDA:0,_RNCNvNtNtCshRHBFeUD2GX_15wallet_canister8services13exchange_rate17get_btc_usd_price0B7_
FNDA:0,_RNCNvNtNtCshRHBFeUD2GX_15wallet_canister8services13exchange_rate18get_usdc_usd_price0B7_
FNDA:0,_RNCNvNtNtCshRHBFeUD2GX_15wallet_canister8services13exchange_rate20get_fiat_to_usd_rate0B7_
FNDA:0,_RNCNvNtNtCshRHBFeUD2GX_15wallet_canister8services13exchange_rate21convert_fiat_currency0B7_
FNDA:0,_RNCNvNtNtCshRHBFeUD2GX_15wallet_canister8services13exchange_rate26calculate_crypto_from_fiat0B7_
FNDA:0,_RNCNvNtNtCshRHBFeUD2GX_15wallet_canister8services13exchange_rate26calculate_fiat_from_crypto0B7_
FNDA:0,_RNvNtNtCshRHBFeUD2GX_15wallet_canister8services13exchange_rate17get_btc_usd_price
FNDA:0,_RNvNtNtCshRHBFeUD2GX_15wallet_canister8services13exchange_rate18get_usdc_usd_price
FNDA:0,_RNvNtNtCshRHBFeUD2GX_15wallet_canister8services13exchange_rate20get_fiat_to_usd_rate
FNDA:0,_RNvNtNtCshRHBFeUD2GX_15wallet_canister8services13exchange_rate21convert_fiat_currency
FNDA:0,_RNvNtNtCshRHBFeUD2GX_15wallet_canister8services13exchange_rate26calculate_crypto_from_fiat
FNDA:0,_RNvNtNtCshRHBFeUD2GX_15wallet_canister8services13exchange_rate26calculate_fiat_from_crypto
FNDA:1,_RNvNtNtNtCshRHBFeUD2GX_15wallet_canister8services13exchange_rate5testss_20test_mock_fiat_rates
FNDA:1,_RNvNtNtNtCshRHBFeUD2GX_15wallet_canister8services13exchange_rate5testss_29test_parse_coingecko_response
FNDA:1,_RNvNtNtNtCshRHBFeUD2GX_15wallet_canister8services13exchange_rate5testss_32test_parse_exchangerate_response
FNDA:1,_RNvNtNtCshRHBFeUD2GX_15wallet_canister8services13exchange_rate24parse_coingecko_response
FNDA:4,_RNvNtNtCshRHBFeUD2GX_15wallet_canister8services13exchange_rate25get_mock_fiat_to_usd_rate
FNDA:2,_RNvNtNtCshRHBFeUD2GX_15wallet_canister8services13exchange_rate27parse_exchangerate_response
FNDA:0,_RNCNvNtNtCshRHBFeUD2GX_15wallet_canister8services13exchange_rate24parse_coingecko_response0B7_
FNDA:0,_RNCNvNtNtCshRHBFeUD2GX_15wallet_canister8services13exchange_rate24parse_coingecko_responses0_0B7_
FNDA:1,_RNCNvNtNtCshRHBFeUD2GX_15wallet_canister8services13exchange_rate24parse_coingecko_responses_0B7_
FNDA:0,_RNCNvNtNtCshRHBFeUD2GX_15wallet_canister8services13exchange_rate27parse_exchangerate_response0B7_
FNDA:2,_RNCNvNtNtCshRHBFeUD2GX_15wallet_canister8services13exchange_rate27parse_exchangerate_responses0_0B7_
FNDA:0,_RNCNvNtNtCshRHBFeUD2GX_15wallet_canister8services13exchange_rate27parse_exchangerate_responses1_0B7_
FNDA:2,_RNCNvNtNtCshRHBFeUD2GX_15wallet_canister8services13exchange_rate27parse_exchangerate_responses_0B7_
FNF:32
FNH:9
DA:9,0
DA:18,0
DA:24,0
DA:29,0
DA:37,0
DA:38,0
DA:39,0
DA:41,0
DA:42,0
DA:43,0
DA:44,0
DA:45,0
DA:46,0
DA:47,0
DA:49,0
DA:51,0
DA:52,0
DA:53,0
DA:56,0
DA:57,0
DA:58,0
DA:60,0
DA:61,0
DA:63,0
DA:64,0
DA:67,0
DA:68,0
DA:69,0
DA:71,0
DA:72,0
DA:73,0
DA:74,0
DA:75,0
DA:76,0
DA:77,0
DA:79,0
DA:81,0
DA:82,0
DA:83,0
DA:86,0
DA:87,0
DA:88,0
DA:90,0
DA:91,0
DA:93,0
DA:94,0
DA:97,0
DA:98,0
DA:99,0
DA:100,0
DA:101,0
DA:102,0
DA:103,0
DA:104,0
DA:105,0
DA:107,0
DA:109,0
DA:110,0
DA:111,0
DA:114,0
DA:115,0
DA:116,0
DA:118,0
DA:119,0
DA:121,0
DA:122,0
DA:125,4
DA:126,4
DA:127,4
DA:128,3
DA:129,2
DA:130,2
DA:131,1
DA:132,1
DA:133,1
DA:134,1
DA:135,1
DA:136,1
DA:137,1
DA:138,1
DA:139,1
DA:141,3
DA:142,4
DA:145,0
DA:146,0
DA:147,0
DA:148,0
DA:149,0
DA:151,0
DA:154,0
DA:157,0
DA:158,0
DA:159,0
DA:160,0
DA:164,0
DA:167,0
DA:168,0
DA:169,0
DA:170,0
DA:173,0
DA:174,0
DA:177,0
DA:178,0
DA:179,0
DA:180,0
DA:181,0
DA:183,0
DA:184,0
DA:185,0
DA:186,0
DA:189,0
DA:192,0
DA:193,0
DA:194,0
DA:195,0
DA:199,0
DA:202,0
DA:205,0
DA:207,0
DA:208,0
DA:211,0
DA:212,0
DA:213,0
DA:214,0
DA:215,0
DA:216,0
DA:217,0
DA:218,0
DA:221,0
DA:222,0
DA:225,0
DA:226,0
DA:228,0
DA:229,0
DA:235,1
DA:236,1
DA:237,1
DA:241,1
DA:242,1
DA:243,1
DA:244,1
DA:245,1
DA:247,1
DA:248,1
DA:249,1
DA:250,1
DA:252,2
DA:253,2
DA:254,2
DA:258,2
DA:259,2
DA:260,2
DA:261,2
DA:262,2
DA:263,2
DA:265,2
DA:266,2
DA:267,2
DA:268,2
DA:269,2
DA:276,1
DA:277,1
DA:278,1
DA:279,1
DA:280,1
DA:281,1
DA:283,1
DA:284,1
DA:285,1
DA:288,1
DA:289,1
DA:290,1
DA:291,1
DA:292,1
DA:293,1
DA:295,1
DA:296,1
DA:298,1
DA:299,1
DA:300,1
DA:303,1
DA:304,1
DA:305,1
DA:306,1
DA:307,1
DA:308,1
BRF:0
BRH:0
LF:202
LH:72
end_of_record
SF:/Users/sdicola/CascadeProjects/afritokeni-mvp/canisters/wallet_canister/src/services/user_client.rs
FN:7,_RNvNtNtCshRHBFeUD2GX_15wallet_canister8services11user_client10verify_pin
FN:13,_RNCNCNvNtNtCshRHBFeUD2GX_15wallet_canister8services11user_client10verify_pin00B9_
FN:17,_RNCNCNvNtNtCshRHBFeUD2GX_15wallet_canister8services11user_client10verify_pin0s_0B9_
FN:7,_RNCNvNtNtCshRHBFeUD2GX_15wallet_canister8services11user_client10verify_pin0B7_
FNDA:0,_RNvNtNtCshRHBFeUD2GX_15wallet_canister8services11user_client10verify_pin
FNDA:0,_RNCNCNvNtNtCshRHBFeUD2GX_15wallet_canister8services11user_client10verify_pin00B9_
FNDA:0,_RNCNCNvNtNtCshRHBFeUD2GX_15wallet_canister8services11user_client10verify_pin0s_0B9_
FNDA:0,_RNCNvNtNtCshRHBFeUD2GX_15wallet_canister8services11user_client10verify_pin0B7_
FNF:4
FNH:0
DA:7,0
DA:8,0
DA:10,0
DA:11,0
DA:12,0
DA:13,0
DA:15,0
DA:16,0
DA:17,0
DA:19,0
DA:20,0
BRF:0
BRH:0
LF:14
LH:0
end_of_record